ARM Linker, 4.1 [Build 644] [Standard]

==============================================================================

Section Cross References

    startup_lpc17xx.o(RESET) refers to startup_lpc17xx.o(STACK) for __initial_sp
    startup_lpc17xx.o(RESET) refers to startup_lpc17xx.o(.text) for Reset_Handler
    startup_lpc17xx.o(RESET) refers to main.o(.text) for SysTick_Handler
    startup_lpc17xx.o(RESET) refers to timer.o(.text) for TIMER0_IRQHandler
    startup_lpc17xx.o(RESET) refers to uart0.o(.text) for UART0_IRQHandler
    startup_lpc17xx.o(RESET) refers to full_can.o(.text) for CAN_IRQHandler
    startup_lpc17xx.o(RESET) refers to emac_lpc17xx.o(.text) for ENET_IRQHandler
    startup_lpc17xx.o(.text) refers to entry.o(.ARM.Collect$$$$00000000) for __main
    net_config_http.o(.text) refers to at_ethernet.o(i.run_eth_link) for run_eth_link
    net_config_http.o(.text) refers to at_tcp.o(i.tcp_poll_sockets) for tcp_poll_sockets
    net_config_http.o(.text) refers to at_http.o(i.run_http_server) for run_http_server
    net_config_http.o(.text) refers to at_udp.o(i.process_udp) for process_udp
    net_config_http.o(.text) refers to at_tcp.o(i.process_tcp) for process_tcp
    net_config_http.o(.text) refers to at_ethernet.o(i.eth_send_frame) for eth_send_frame
    net_config_http.o(.text) refers to at_ethernet.o(i.init_eth_link) for init_eth_link
    net_config_http.o(.text) refers to at_udp.o(i.init_udp) for init_udp
    net_config_http.o(.text) refers to at_tcp.o(i.init_tcp) for init_tcp
    net_config_http.o(.text) refers to at_http.o(i.init_http) for init_http
    common_func.o(.text) refers to main.o(.data) for lcd_buffer
    common_func.o(.text) refers to main.o(.data) for dig
    common_func.o(.text) refers to main.o(.data) for zero_on
    common_func.o(.text) refers to main.o(.constdata) for ABCDEF
    common_func.o(.text) refers to ret.o(.text) for ret
    common_func.o(.text) refers to main.o(.bss) for b_ind
    common_func.o(.text) refers to common_func.o(.text) for bin2bcd_int
    common_func.o(.text) refers to main.o(.data) for dig
    common_func.o(.text) refers to main.o(.data) for lcd_buffer
    common_func.o(.text) refers to common_func.o(.text) for bin2bcd_int
    common_func.o(.text) refers to main.o(.data) for dig
    common_func.o(.text) refers to main.o(.data) for lcd_buffer
    common_func.o(.text) refers to 25lc640.o(.text) for lc640_read_int
    common_func.o(.text) refers to common_func.o(.text) for ptr_carry
    common_func.o(.text) refers to main.o(.data) for lcd_buffer
    common_func.o(.text) refers to main.o(.constdata) for sm_mont
    common_func.o(.text) refers to common_func.o(.text) for find
    common_func.o(.text) refers to main.o(.data) for lcd_buffer
    common_func.o(.text) refers to common_func.o(.text) for find
    common_func.o(.text) refers to main.o(.data) for bFL2
    common_func.o(.text) refers to common_func.o(.text) for find
    common_func.o(.text) refers to main.o(.constdata) for ABCDEF
    common_func.o(.text) refers to main.o(.data) for lcd_buffer
    common_func.o(.text) refers to 25lc640.o(.text) for lc640_read_long_ptr
    common_func.o(.text) refers to common_func.o(.text) for find
    common_func.o(.text) refers to main.o(.data) for lcd_buffer
    common_func.o(.text) refers to main.o(.constdata) for sm_mont
    control.o(.text) refers to main.o(.data) for TBAT
    control.o(.text) refers to control.o(.data) for .data
    control.o(.text) refers to control.o(.data) for .data
    control.o(.text) refers to mess.o(.text) for mess_send
    control.o(.text) refers to 25lc640.o(.text) for lc640_write_int
    control.o(.text) refers to control.o(.data) for .data
    control.o(.text) refers to ad7705.o(.data) for ad7705_buff_
    control.o(.text) refers to main.o(.data) for Kiload0
    control.o(.text) refers to gran.o(.text) for gran_ring
    control.o(.text) refers to main.o(.text) for abs_pal
    control.o(.text) refers to main.o(.data) for bat_u_old_cnt
    control.o(.text) refers to main.o(.bss) for bat
    control.o(.text) refers to control.o(.bss) for .bss
    control.o(.text) refers to main.o(.data) for Kuload
    control.o(.text) refers to ad7705.o(.data) for ad7705_buff_
    control.o(.text) refers to main.o(.data) for Kiload0
    control.o(.text) refers to main.o(.data) for Kiload1
    control.o(.text) refers to control.o(.data) for .data
    control.o(.text) refers to main.o(.data) for bps_stat
    control.o(.text) refers to main.o(.data) for _x_
    control.o(.text) refers to main.o(.data) for _xu_
    control.o(.text) refers to avar_hndl.o(.text) for avar_bps_hndl
    control.o(.text) refers to main.o(.text) for abs_pal
    control.o(.text) refers to control.o(.data) for .data
    control.o(.text) refers to control.o(.bss) for .bss
    control.o(.text) refers to main.o(.data) for IZMAX
    control.o(.text) refers to control.o(.data) for .data
    control.o(.text) refers to main.o(.bss) for bat
    control.o(.text) refers to main.o(.data) for sign_U
    control.o(.text) refers to main.o(.data) for sign_I
    mess.o(.text) refers to mess.o(.bss) for .bss
    mess.o(.text) refers to mess.o(.data) for .data
    ret.o(.text) refers to common_func.o(.text) for tree_down
    ret.o(.text) refers to ret.o(.data) for .data
    ret.o(.text) refers to ret.o(.data) for .data
    ret.o(.text) refers to main.o(.data) for a_ind
    ret.o(.text) refers to ret.o(.data) for .data
    ret.o(.text) refers to main.o(.data) for a_ind
    avar_hndl.o(.text) refers to 25lc640.o(.text) for lc640_read_int
    avar_hndl.o(.text) refers to main.o(.data) for net_av
    avar_hndl.o(.text) refers to avar_hndl.o(.data) for .data
    avar_hndl.o(.text) refers to main.o(.bss) for bat
    avar_hndl.o(.text) refers to main.o(.data) for AV_OFF_AVT
    avar_hndl.o(.text) refers to 25lc640.o(.text) for lc640_read_int
    avar_hndl.o(.text) refers to main.o(.data) for net_av
    avar_hndl.o(.text) refers to avar_hndl.o(.data) for .data
    avar_hndl.o(.text) refers to main.o(.data) for AV_OFF_AVT
    avar_hndl.o(.text) refers to main.o(.data) for net_Ustore
    avar_hndl.o(.text) refers to 25lc640.o(.text) for lc640_read_int
    avar_hndl.o(.text) refers to main.o(.bss) for bat
    avar_hndl.o(.text) refers to main.o(.data) for bat_u_old_cnt
    avar_hndl.o(.text) refers to 25lc640.o(.text) for lc640_read_int
    avar_hndl.o(.text) refers to main.o(.bss) for bat
    avar_hndl.o(.text) refers to 25lc640.o(.text) for lc640_read_int
    avar_hndl.o(.text) refers to main.o(.bss) for bat
    avar_hndl.o(.text) refers to main.o(.data) for bat_u_old_cnt
    avar_hndl.o(.text) refers to control.o(.data) for ke_date
    avar_hndl.o(.text) refers to 25lc640.o(.text) for lc640_read_int
    main.o(.text) refers to 25lc640.o(.text) for lc640_read_int
    main.o(.text) refers to mess.o(.text) for mess_find_unvol
    main.o(.text) refers to full_can.o(.text) for can1_out
    main.o(.text) refers to avar_hndl.o(.text) for avar_bps_hndl
    main.o(.text) refers to control.o(.data) for adc_self_ch_buff
    main.o(.text) refers to full_can.o(.data) for can_reset_cnt
    main.o(.text) refers to main.o(.data) for .data
    main.o(.text) refers to avar_hndl.o(.data) for avar_stat
    main.o(.text) refers to mess.o(.data) for mess_data
    main.o(.text) refers to main.o(.bss) for .bss
    main.o(.text) refers to main.o(.constdata) for .constdata
    main.o(.text) refers to common_func.o(.text) for bgnd_par
    main.o(.text) refers to control.o(.data) for rele_stat
    main.o(.text) refers to control.o(.data) for bAVG
    main.o(.text) refers to control.o(.data) for i_avg_max
    main.o(.text) refers to control.o(.data) for i_avg_min
    main.o(.text) refers to control.o(.data) for avg
    main.o(.text) refers to control.o(.data) for spc_stat
    main.o(.text) refers to control.o(.data) for __ee_spc_stat
    main.o(.text) refers to control.o(.data) for spc_bat
    main.o(.text) refers to control.o(.data) for __ee_spc_bat
    main.o(.text) refers to eeprom_map.o(.constdata) for ADR_EE_BAT_ZAR_CNT_KE
    main.o(.text) refers to control.o(.data) for spc_phase
    main.o(.text) refers to control.o(.data) for __ee_spc_phase
    main.o(.text) refers to control.o(.data) for vz_cnt_s_
    main.o(.text) refers to control.o(.data) for vz_cnt_s
    main.o(.text) refers to control.o(.data) for vz_cnt_h
    main.o(.text) refers to control.o(.data) for vz_cnt_h_
    main.o(.text) refers to control.o(.data) for __ee_vz_cnt
    main.o(.text) refers to control.o(.bss) for adc_buff_
    main.o(.text) refers to beep.o(.text) for beep_init
    main.o(.text) refers to gran.o(.text) for gran_char
    main.o(.text) refers to full_can.o(.bss) for TXBUFF
    main.o(.text) refers to ret.o(.text) for ret
    main.o(.text) refers to eeprom_map.o(.constdata) for ADR_EE_BAT_IS_ON
    main.o(.text) refers to eeprom_map.o(.constdata) for ADR_EE_BAT_DAY_OF_ON
    main.o(.text) refers to eeprom_map.o(.constdata) for ADR_EE_BAT_MONTH_OF_ON
    main.o(.text) refers to eeprom_map.o(.constdata) for ADR_EE_BAT_YEAR_OF_ON
    main.o(.text) refers to eeprom_map.o(.constdata) for ADR_EE_BAT_C_REAL
    main.o(.text) refers to eeprom_map.o(.constdata) for ADR_EE_BAT_RESURS
    main.o(.text) refers to eeprom_map.o(.constdata) for ADR_EE_BAT_ZAR_CNT
    main.o(.text) refers to ad7705.o(.data) for ad7705_buff_
    main.o(.text) refers to eeprom_map.o(.constdata) for ADR_EE_BAT_C_NOM
    main.o(.text) refers to system_lpc17xx.o(.text) for SystemInit
    main.o(.text) refers to ad7705.o(.text) for ad7705_reset
    main.o(.text) refers to system_lpc17xx.o(.data) for SystemFrequency
    main.o(.text) refers to ad7705.o(.bss) for ad7705_buff
    main.o(.text) refers to lcd_agm1232_uku207_3.o(.text) for lcd_init
    main.o(.text) refers to control.o(.text) for adc_init
    main.o(.text) refers to uart0.o(.text) for UARTInit
    main.o(.text) refers to memo.o(.text) for memo_read
    main.o(.text) refers to at_system.o(i.main_TcpNet) for main_TcpNet
    main.o(.text) refers to at_system.o(i.timer_tick) for timer_tick
    main.o(.text) refers to uart0.o(.data) for bRXIN0
    main.o(.text) refers to 25lc640.o(.text) for lc640_read_int
    main.o(.text) refers to at_system.o(.bss) for localm
    main.o(.text) refers to 25lc640.o(.text) for lc640_write_int
    main.o(.text) refers to eeprom_map.o(.constdata) for ADR_SK_SIGN
    main.o(.text) refers to eeprom_map.o(.constdata) for ADR_SK_REL_EN
    main.o(.text) refers to eeprom_map.o(.constdata) for ADR_SK_LCD_EN
    graphic.o(.text) refers to main.o(.bss) for lcd_bitmap
    graphic.o(.text) refers to graphic.o(.text) for draw
    graphic.o(.text) refers to graphic.o(.text) for draw
    graphic.o(.text) refers to main.o(.bss) for lcd_bitmap
    graphic.o(.text) refers to graphic.o(.text) for plot
    graphic.o(.text) refers to graphic.o(.text) for plot
    graphic.o(.text) refers to main.o(.constdata) for caracter
    graphic.o(.text) refers to graphic.o(.text) for plot
    graphic.o(.text) refers to main.o(.constdata) for caracter
    memo.o(.text) refers to 25lc640.o(.text) for lc640_read_int
    memo.o(.text) refers to gran.o(.text) for gran
    memo.o(.text) refers to main.o(.data) for U_MAX
    memo.o(.text) refers to main.o(.data) for Kiload0
    memo.o(.text) refers to main.o(.data) for Kiload1
    memo.o(.text) refers to main.o(.data) for Kuload
    memo.o(.text) refers to main.o(.data) for Ktext
    memo.o(.text) refers to main.o(.data) for UB0
    memo.o(.text) refers to main.o(.data) for UB20
    memo.o(.text) refers to main.o(.data) for USIGN
    memo.o(.text) refers to main.o(.data) for UMN
    memo.o(.text) refers to main.o(.data) for ZV_ON
    memo.o(.text) refers to main.o(.data) for APV_ON
    memo.o(.text) refers to main.o(.data) for U0B
    memo.o(.text) refers to main.o(.data) for NUMEXT
    memo.o(.text) refers to main.o(.data) for AV_OFF_AVT
    memo.o(.text) refers to main.o(.data) for PAR
    memo.o(.text) refers to main.o(.data) for UBM_AV
    memo.o(.text) refers to main.o(.data) for BAT_C_REAL
    memo.o(.text) refers to main.o(.data) for AUSW_MAIN
    memo.o(.text) refers to main.o(.data) for AUSW_MAIN_NUMBER
    memo.o(.text) refers to main.o(.data) for AUSW_DAY
    memo.o(.text) refers to main.o(.data) for AUSW_MONTH
    memo.o(.text) refers to main.o(.data) for AUSW_YEAR
    memo.o(.text) refers to main.o(.data) for AUSW_BPS1_NUMBER
    memo.o(.text) refers to main.o(.data) for AUSW_BPS2_NUMBER
    memo.o(.text) refers to main.o(.data) for AUSW_RS232
    memo.o(.text) refers to main.o(.data) for AUSW_PDH
    memo.o(.text) refers to main.o(.data) for AUSW_SDH
    memo.o(.text) refers to main.o(.data) for AUSW_ETH
    memo.o(.text) refers to main.o(.data) for AUSW_UKU
    memo.o(.text) refers to main.o(.data) for AUSW_UKU_SUB
    memo.o(.text) refers to main.o(.data) for AUSW_UKU_NUMBER
    memo.o(.text) refers to main.o(.data) for TMAX_EXT_EN
    memo.o(.text) refers to main.o(.data) for TMAX_EXT
    memo.o(.text) refers to main.o(.data) for TMIN_EXT_EN
    memo.o(.text) refers to main.o(.data) for TMIN_EXT
    memo.o(.text) refers to main.o(.data) for T_EXT_REL_EN
    memo.o(.text) refers to main.o(.data) for T_EXT_ZVUK_EN
    memo.o(.text) refers to main.o(.data) for T_EXT_LCD_EN
    memo.o(.text) refers to main.o(.data) for T_EXT_RS_EN
    memo.o(.text) refers to main.o(.data) for SK_RS_EN
    memo.o(.text) refers to main.o(.data) for ETH_IS_ON
    memo.o(.text) refers to main.o(.data) for ETH_DHCP_ON
    memo.o(.text) refers to main.o(.data) for ETH_IP_1
    memo.o(.text) refers to main.o(.data) for ETH_IP_2
    memo.o(.text) refers to main.o(.data) for ETH_IP_3
    memo.o(.text) refers to main.o(.data) for ETH_IP_4
    memo.o(.text) refers to main.o(.data) for ETH_MASK_1
    memo.o(.text) refers to main.o(.data) for ETH_MASK_2
    memo.o(.text) refers to main.o(.data) for ETH_MASK_3
    memo.o(.text) refers to main.o(.data) for ETH_MASK_4
    memo.o(.text) refers to main.o(.data) for ETH_GW_1
    memo.o(.text) refers to main.o(.data) for ETH_GW_2
    memo.o(.text) refers to main.o(.data) for ETH_GW_3
    memo.o(.text) refers to main.o(.data) for ETH_GW_4
    memo.o(.text) refers to main.o(.data) for ETH_TRAP1_IP_1
    memo.o(.text) refers to main.o(.data) for ETH_TRAP1_IP_2
    memo.o(.text) refers to main.o(.data) for ETH_TRAP1_IP_3
    memo.o(.text) refers to main.o(.data) for ETH_TRAP1_IP_4
    memo.o(.text) refers to main.o(.data) for ETH_TRAP2_IP_1
    memo.o(.text) refers to main.o(.data) for ETH_TRAP2_IP_2
    memo.o(.text) refers to main.o(.data) for ETH_TRAP2_IP_3
    memo.o(.text) refers to main.o(.data) for ETH_TRAP2_IP_4
    memo.o(.text) refers to main.o(.data) for ETH_TRAP3_IP_1
    memo.o(.text) refers to main.o(.data) for ETH_TRAP3_IP_2
    memo.o(.text) refers to main.o(.data) for ETH_TRAP3_IP_3
    memo.o(.text) refers to main.o(.data) for ETH_TRAP3_IP_4
    memo.o(.text) refers to main.o(.data) for ETH_TRAP4_IP_1
    memo.o(.text) refers to main.o(.data) for ETH_TRAP4_IP_2
    memo.o(.text) refers to main.o(.data) for ETH_TRAP4_IP_3
    memo.o(.text) refers to main.o(.data) for ETH_TRAP4_IP_4
    memo.o(.text) refers to main.o(.data) for ETH_TRAP5_IP_1
    memo.o(.text) refers to main.o(.data) for ETH_TRAP5_IP_2
    memo.o(.text) refers to main.o(.data) for ETH_TRAP5_IP_3
    memo.o(.text) refers to main.o(.data) for ETH_TRAP5_IP_4
    memo.o(.text) refers to main.o(.data) for ETH_SNMP_PORT_READ
    memo.o(.text) refers to main.o(.data) for ETH_SNMP_PORT_WRITE
    system_lpc17xx.o(.text) refers to system_lpc17xx.o(.data) for .data
    timer.o(.text) refers to timer.o(.data) for .data
    timer.o(.text) refers to control.o(.data) for adc_self_ch_cnt
    timer.o(.text) refers to timer.o(.text) for NVIC_EnableIRQ
    timer.o(.text) refers to timer.o(.data) for .data
    beep.o(.text) refers to beep.o(.data) for .data
    beep.o(.text) refers to main.o(.data) for ZV_ON
    beep.o(.text) refers to avar_hndl.o(.data) for avar_ind_stat
    beep.o(.text) refers to main.o(.bss) for bat
    beep.o(.text) refers to main.o(.data) for USIGN
    beep.o(.text) refers to main.o(.data) for bSILENT
    ad7705.o(.text) refers to 25lc640.o(.text) for spi1
    ad7705.o(.text) refers to ad7705.o(.data) for .data
    ad7705.o(.text) refers to ad7705.o(.bss) for .bss
    ad7705.o(.text) refers to ad7705.o(.text) for ad7705_write
    ad7705.o(.text) refers to ad7705.o(.data) for .data
    lcd_agm1232_uku207_3.o(.text) refers to lcd_agm1232_uku207_3.o(.text) for status
    lcd_agm1232_uku207_3.o(.text) refers to lcd_agm1232_uku207_3.o(.text) for ltstrobe
    lcd_agm1232_uku207_3.o(.text) refers to lcd_agm1232_uku207_3.o(.text) for lcd1_wr
    25lc640.o(.text) refers to 25lc640.o(.text) for lc640_rdsr
    25lc640.o(.text) refers to 25lc640.o(.text) for lc640_rdsr
    full_can.o(.text) refers to full_can.o(.bss) for .bss
    full_can.o(.text) refers to full_can.o(.constdata) for .constdata
    full_can.o(.text) refers to full_can.o(.bss) for .bss
    full_can.o(.text) refers to full_can.o(.constdata) for .constdata
    full_can.o(.text) refers to full_can.o(.bss) for .bss
    full_can.o(.text) refers to full_can.o(.constdata) for .constdata
    full_can.o(.text) refers to full_can.o(.bss) for .bss
    full_can.o(.text) refers to full_can.o(.constdata) for .constdata
    full_can.o(.text) refers to full_can.o(.data) for .data
    full_can.o(.text) refers to full_can.o(.bss) for .bss
    full_can.o(.text) refers to mess.o(.text) for mess_send
    full_can.o(.text) refers to avar_hndl.o(.text) for avar_bps_hndl
    full_can.o(.text) refers to main.o(.data) for a_ind
    full_can.o(.text) refers to main.o(.bss) for bps
    full_can.o(.text) refers to main.o(.data) for vvod_pos
    full_can.o(.text) refers to main.o(.data) for ext_can_cnt
    full_can.o(.text) refers to main.o(.bss) for eb2_data
    full_can.o(.text) refers to main.o(.bss) for eb2_data_short
    full_can.o(.text) refers to full_can.o(.data) for .data
    full_can.o(.text) refers to full_can.o(.bss) for .bss
    full_can.o(.text) refers to full_can.o(.bss) for .bss
    uart0.o(.text) refers to 25lc640.o(.text) for lc640_read_long
    uart0.o(.text) refers to full_can.o(.constdata) for Table87
    uart0.o(.text) refers to uart0.o(.data) for .data
    uart0.o(.text) refers to uart0.o(.bss) for .bss
    uart0.o(.text) refers to system_lpc17xx.o(.data) for SystemFrequency
    uart0.o(.text) refers to uart0.o(.text) for putchar0
    uart0.o(.text) refers to uart0.o(.text) for putchar0
    uart0.o(.text) refers to uart0.o(.data) for .data
    uart0.o(.text) refers to uart0.o(.bss) for .bss
    emac_lpc17xx.o(.text) refers to emac_lpc17xx.o(.text) for output_MDIO
    emac_lpc17xx.o(.text) refers to emac_lpc17xx.o(.text) for turnaround_MDIO
    emac_lpc17xx.o(.text) refers to emac_lpc17xx.o(.data) for .data
    emac_lpc17xx.o(.text) refers to emac_lpc17xx.o(.text) for output_MDIO
    emac_lpc17xx.o(.text) refers to emac_lpc17xx.o(.text) for turnaround_MDIO
    emac_lpc17xx.o(.text) refers to emac_lpc17xx.o(.data) for .data
    emac_lpc17xx.o(.text) refers to emac_lpc17xx.o(.text) for write_PHY
    emac_lpc17xx.o(.text) refers to emac_lpc17xx.o(.text) for read_PHY
    emac_lpc17xx.o(.text) refers to emac_lpc17xx.o(.data) for .data
    emac_lpc17xx.o(.text) refers to net_config_http.o(.data) for own_hw_adr
    emac_lpc17xx.o(.text) refers to emac_lpc17xx.o(.bss) for .bss
    emac_lpc17xx.o(.text) refers to at_mem.o(i.alloc_mem) for alloc_mem
    emac_lpc17xx.o(.text) refers to at_ethernet.o(i.put_in_queue) for put_in_queue
    emac_lpc17xx.o(.text) refers to emac_lpc17xx.o(.bss) for .bss
    at_tcp.o(i.init_tcp) refers to at_lib.o(i.mem_set) for mem_set
    at_tcp.o(i.init_tcp) refers to net_config_http.o(.constdata) for tcp_NumSocks
    at_tcp.o(i.init_tcp) refers to net_config_http.o(.bss) for tcp_socket
    at_tcp.o(i.process_tcp) refers to at_tcp.o(i.tcp_map_socket) for tcp_map_socket
    at_tcp.o(i.process_tcp) refers to at_lib.o(i.CalcChksumBuf) for CalcChksumBuf
    at_tcp.o(i.process_tcp) refers to at_lib.o(i.CalcChksumVal) for CalcChksumVal
    at_tcp.o(i.process_tcp) refers to at_lib.o(i.get_u32) for get_u32
    at_tcp.o(i.process_tcp) refers to at_tcp.o(i.tcp_set_retransmit) for tcp_set_retransmit
    at_tcp.o(i.process_tcp) refers to at_lib.o(i.mem_copy) for mem_copy
    at_tcp.o(i.process_tcp) refers to at_mem.o(i.resize_mem) for resize_mem
    at_tcp.o(i.process_tcp) refers to at_tcp.o(i.tcp_send_ctrl) for tcp_send_ctrl
    at_tcp.o(i.process_tcp) refers to at_tcp.o(i.tcp_send_reset) for tcp_send_reset
    at_tcp.o(i.process_tcp) refers to at_tcp.o(i.tcp_process_opt) for tcp_process_opt
    at_tcp.o(i.process_tcp) refers to at_tcp.o(i.tcp_init_seq) for tcp_init_seq
    at_tcp.o(i.process_tcp) refers to at_tcp.o(i.tcp_transit) for tcp_transit
    at_tcp.o(i.process_tcp) refers to net_config_http.o(.text) for sys_error
    at_tcp.o(i.process_tcp) refers to net_config_http.o(.bss) for tcp_socket
    at_tcp.o(i.tcp_abort) refers to at_tcp.o(i.tcp_transit) for tcp_transit
    at_tcp.o(i.tcp_abort) refers to at_tcp.o(i.tcp_send_ctrl) for tcp_send_ctrl
    at_tcp.o(i.tcp_abort) refers to net_config_http.o(.constdata) for tcp_NumSocks
    at_tcp.o(i.tcp_abort) refers to net_config_http.o(.bss) for tcp_socket
    at_tcp.o(i.tcp_check_send) refers to net_config_http.o(.constdata) for tcp_NumSocks
    at_tcp.o(i.tcp_check_send) refers to net_config_http.o(.bss) for tcp_socket
    at_tcp.o(i.tcp_close) refers to at_tcp.o(i.tcp_transit) for tcp_transit
    at_tcp.o(i.tcp_close) refers to at_tcp.o(i.tcp_send_ctrl) for tcp_send_ctrl
    at_tcp.o(i.tcp_close) refers to net_config_http.o(.constdata) for tcp_NumSocks
    at_tcp.o(i.tcp_close) refers to net_config_http.o(.bss) for tcp_socket
    at_tcp.o(i.tcp_connect) refers to at_tcp.o(i.tcp_get_free_port) for tcp_get_free_port
    at_tcp.o(i.tcp_connect) refers to at_lib.o(i.mem_test) for mem_test
    at_tcp.o(i.tcp_connect) refers to at_lib.o(i.mem_copy) for mem_copy
    at_tcp.o(i.tcp_connect) refers to at_tcp.o(i.tcp_init_seq) for tcp_init_seq
    at_tcp.o(i.tcp_connect) refers to at_tcp.o(i.tcp_send_ctrl) for tcp_send_ctrl
    at_tcp.o(i.tcp_connect) refers to at_tcp.o(i.tcp_transit) for tcp_transit
    at_tcp.o(i.tcp_connect) refers to net_config_http.o(.constdata) for tcp_NumSocks
    at_tcp.o(i.tcp_connect) refers to net_config_http.o(.bss) for tcp_socket
    at_tcp.o(i.tcp_get_adr) refers to net_config_http.o(.bss) for tcp_socket
    at_tcp.o(i.tcp_get_buf) refers to at_mem.o(i.alloc_mem) for alloc_mem
    at_tcp.o(i.tcp_get_free_port) refers to at_tcp.o(.data) for .data
    at_tcp.o(i.tcp_get_free_port) refers to net_config_http.o(.constdata) for tcp_NumSocks
    at_tcp.o(i.tcp_get_free_port) refers to net_config_http.o(.bss) for tcp_socket
    at_tcp.o(i.tcp_get_socket) refers to net_config_http.o(.text) for sys_error
    at_tcp.o(i.tcp_get_socket) refers to net_config_http.o(.bss) for tcp_socket
    at_tcp.o(i.tcp_get_socket) refers to net_config_http.o(.constdata) for tcp_NumSocks
    at_tcp.o(i.tcp_get_state) refers to net_config_http.o(.constdata) for tcp_NumSocks
    at_tcp.o(i.tcp_get_state) refers to net_config_http.o(.bss) for tcp_socket
    at_tcp.o(i.tcp_init_seq) refers to at_system.o(.data) for timer_cnt
    at_tcp.o(i.tcp_listen) refers to at_lib.o(i.mem_set) for mem_set
    at_tcp.o(i.tcp_listen) refers to net_config_http.o(.constdata) for tcp_NumSocks
    at_tcp.o(i.tcp_listen) refers to net_config_http.o(.bss) for tcp_socket
    at_tcp.o(i.tcp_map_socket) refers to at_lib.o(i.SwapB) for SwapB
    at_tcp.o(i.tcp_map_socket) refers to at_lib.o(i.mem_comp) for mem_comp
    at_tcp.o(i.tcp_map_socket) refers to at_lib.o(i.mem_copy) for mem_copy
    at_tcp.o(i.tcp_map_socket) refers to net_config_http.o(.bss) for tcp_socket
    at_tcp.o(i.tcp_map_socket) refers to net_config_http.o(.constdata) for tcp_NumSocks
    at_tcp.o(i.tcp_max_dsize) refers to net_config_http.o(.bss) for tcp_socket
    at_tcp.o(i.tcp_poll_sockets) refers to at_tcp.o(i.tcp_send_ctrl) for tcp_send_ctrl
    at_tcp.o(i.tcp_poll_sockets) refers to at_tcp.o(i.tcp_send_frame) for tcp_send_frame
    at_tcp.o(i.tcp_poll_sockets) refers to at_tcp.o(i.tcp_set_retransmit) for tcp_set_retransmit
    at_tcp.o(i.tcp_poll_sockets) refers to at_tcp.o(i.tcp_transit) for tcp_transit
    at_tcp.o(i.tcp_poll_sockets) refers to at_system.o(.data) for sys_tick
    at_tcp.o(i.tcp_poll_sockets) refers to net_config_http.o(.constdata) for tcp_NumSocks
    at_tcp.o(i.tcp_poll_sockets) refers to net_config_http.o(.bss) for tcp_socket
    at_tcp.o(i.tcp_poll_sockets) refers to net_config_http.o(.constdata) for tcp_RetryTout
    at_tcp.o(i.tcp_poll_sockets) refers to at_tcp.o(.data) for .data
    at_tcp.o(i.tcp_poll_sockets) refers to net_config_http.o(.constdata) for tcp_SynRetryTout
    at_tcp.o(i.tcp_process_opt) refers to net_config_http.o(.bss) for tcp_socket
    at_tcp.o(i.tcp_release_socket) refers to at_lib.o(i.mem_set) for mem_set
    at_tcp.o(i.tcp_release_socket) refers to net_config_http.o(.constdata) for tcp_NumSocks
    at_tcp.o(i.tcp_release_socket) refers to net_config_http.o(.bss) for tcp_socket
    at_tcp.o(i.tcp_reset_tout) refers to net_config_http.o(.constdata) for tcp_NumSocks
    at_tcp.o(i.tcp_reset_tout) refers to net_config_http.o(.bss) for tcp_socket
    at_tcp.o(i.tcp_reset_window) refers to at_tcp.o(i.tcp_send_ctrl) for tcp_send_ctrl
    at_tcp.o(i.tcp_reset_window) refers to net_config_http.o(.constdata) for tcp_NumSocks
    at_tcp.o(i.tcp_reset_window) refers to net_config_http.o(.bss) for tcp_socket
    at_tcp.o(i.tcp_send) refers to at_mem.o(i.resize_mem) for resize_mem
    at_tcp.o(i.tcp_send) refers to at_tcp.o(i.tcp_set_retransmit) for tcp_set_retransmit
    at_tcp.o(i.tcp_send) refers to at_mem.o(i.alloc_mem) for alloc_mem
    at_tcp.o(i.tcp_send) refers to at_lib.o(i.mem_copy) for mem_copy
    at_tcp.o(i.tcp_send) refers to at_tcp.o(i.tcp_send_frame) for tcp_send_frame
    at_tcp.o(i.tcp_send) refers to at_mem.o(i.free_mem) for free_mem
    at_tcp.o(i.tcp_send) refers to net_config_http.o(.constdata) for tcp_NumSocks
    at_tcp.o(i.tcp_send) refers to net_config_http.o(.bss) for tcp_socket
    at_tcp.o(i.tcp_send) refers to net_config_http.o(.constdata) for tcp_RetryTout
    at_tcp.o(i.tcp_send) refers to net_config_http.o(.constdata) for tcp_MaxRetry
    at_tcp.o(i.tcp_send_ctrl) refers to at_mem.o(i.alloc_mem) for alloc_mem
    at_tcp.o(i.tcp_send_ctrl) refers to at_tcp.o(i.tcp_send_frame) for tcp_send_frame
    at_tcp.o(i.tcp_send_ctrl) refers to at_mem.o(i.free_mem) for free_mem
    at_tcp.o(i.tcp_send_frame) refers to at_lib.o(i.SwapB) for SwapB
    at_tcp.o(i.tcp_send_frame) refers to at_lib.o(i.set_u32) for set_u32
    at_tcp.o(i.tcp_send_frame) refers to at_ip.o(i.ip_get_locadr) for ip_get_locadr
    at_tcp.o(i.tcp_send_frame) refers to at_lib.o(i.CalcChksumBuf) for CalcChksumBuf
    at_tcp.o(i.tcp_send_frame) refers to at_lib.o(i.CalcChksumVal) for CalcChksumVal
    at_tcp.o(i.tcp_send_frame) refers to at_ip.o(i.ip_send_frame) for ip_send_frame
    at_tcp.o(i.tcp_send_frame) refers to net_config_http.o(.constdata) for tcp_NumSocks
    at_tcp.o(i.tcp_send_frame) refers to net_config_http.o(.bss) for tcp_socket
    at_tcp.o(i.tcp_send_reset) refers to at_lib.o(i.mem_copy) for mem_copy
    at_tcp.o(i.tcp_send_reset) refers to at_lib.o(i.SwapB) for SwapB
    at_tcp.o(i.tcp_send_reset) refers to at_lib.o(i.get_u32) for get_u32
    at_tcp.o(i.tcp_send_reset) refers to at_tcp.o(i.tcp_send_ctrl) for tcp_send_ctrl
    at_tcp.o(i.tcp_send_reset) refers to net_config_http.o(.constdata) for tcp_NumSocks
    at_tcp.o(i.tcp_send_reset) refers to net_config_http.o(.bss) for tcp_socket
    at_tcp.o(i.tcp_set_dack) refers to net_config_http.o(.constdata) for tcp_NumSocks
    at_tcp.o(i.tcp_set_dack) refers to net_config_http.o(.bss) for tcp_socket
    at_tcp.o(i.tcp_set_retransmit) refers to at_mem.o(i.free_mem) for free_mem
    at_tcp.o(i.tcp_transit) refers to at_tcp.o(i.tcp_set_retransmit) for tcp_set_retransmit
    at_tcp.o(i.tcp_transit) refers to net_config_http.o(.constdata) for tcp_RetryTout
    at_tcp.o(i.tcp_transit) refers to net_config_http.o(.constdata) for tcp_2MSSTout
    at_tcp.o(i.tcp_transit) refers to net_config_http.o(.constdata) for tcp_InitRetryTout
    at_tcp.o(i.tcp_transit) refers to net_config_http.o(.constdata) for tcp_ConRetry
    at_tcp.o(i.tcp_transit) refers to net_config_http.o(.constdata) for tcp_MaxRetry
    at_udp.o(i.init_udp) refers to at_lib.o(i.mem_set) for mem_set
    at_udp.o(i.init_udp) refers to net_config_http.o(.constdata) for udp_NumSocks
    at_udp.o(i.init_udp) refers to net_config_http.o(.bss) for udp_socket
    at_udp.o(i.process_udp) refers to at_lib.o(i.SwapB) for SwapB
    at_udp.o(i.process_udp) refers to at_lib.o(i.CalcChksumBuf) for CalcChksumBuf
    at_udp.o(i.process_udp) refers to at_lib.o(i.CalcChksumVal) for CalcChksumVal
    at_udp.o(i.process_udp) refers to net_config_http.o(.bss) for udp_socket
    at_udp.o(i.process_udp) refers to net_config_http.o(.constdata) for udp_NumSocks
    at_udp.o(i.udp_close) refers to net_config_http.o(.constdata) for udp_NumSocks
    at_udp.o(i.udp_close) refers to net_config_http.o(.bss) for udp_socket
    at_udp.o(i.udp_get_buf) refers to at_mem.o(i.alloc_mem) for alloc_mem
    at_udp.o(i.udp_get_socket) refers to net_config_http.o(.text) for sys_error
    at_udp.o(i.udp_get_socket) refers to net_config_http.o(.bss) for udp_socket
    at_udp.o(i.udp_get_socket) refers to net_config_http.o(.constdata) for udp_NumSocks
    at_udp.o(i.udp_mcast_ttl) refers to net_config_http.o(.constdata) for udp_NumSocks
    at_udp.o(i.udp_mcast_ttl) refers to net_config_http.o(.bss) for udp_socket
    at_udp.o(i.udp_open) refers to net_config_http.o(.constdata) for udp_NumSocks
    at_udp.o(i.udp_open) refers to net_config_http.o(.bss) for udp_socket
    at_udp.o(i.udp_open) refers to at_udp.o(.data) for .data
    at_udp.o(i.udp_release_socket) refers to at_lib.o(i.mem_set) for mem_set
    at_udp.o(i.udp_release_socket) refers to net_config_http.o(.constdata) for udp_NumSocks
    at_udp.o(i.udp_release_socket) refers to net_config_http.o(.bss) for udp_socket
    at_udp.o(i.udp_send) refers to at_lib.o(i.mem_test) for mem_test
    at_udp.o(i.udp_send) refers to at_lib.o(i.SwapB) for SwapB
    at_udp.o(i.udp_send) refers to at_ip.o(i.ip_get_locadr) for ip_get_locadr
    at_udp.o(i.udp_send) refers to at_lib.o(i.CalcChksumBuf) for CalcChksumBuf
    at_udp.o(i.udp_send) refers to at_lib.o(i.CalcChksumVal) for CalcChksumVal
    at_udp.o(i.udp_send) refers to at_mem.o(i.free_mem) for free_mem
    at_udp.o(i.udp_send) refers to at_ip.o(i.ip_send_frame) for ip_send_frame
    at_udp.o(i.udp_send) refers to net_config_http.o(.constdata) for udp_NumSocks
    at_udp.o(i.udp_send) refers to net_config_http.o(.bss) for udp_socket
    at_http.o(i.chk_post_rq) refers to at_http.o(i.cmp_header) for cmp_header
    at_http.o(i.chk_post_rq) refers to at_lib.o(i.str_scomp) for str_scomp
    at_http.o(i.chk_post_rq) refers to at_mem.o(i.alloc_mem) for alloc_mem
    at_http.o(i.chk_post_rq) refers to at_http.o(i.http_strcpy) for http_strcpy
    at_http.o(i.chk_post_rq) refers to at_http.o(i.get_next_par) for get_next_par
    at_http.o(i.chk_post_rq) refers to atoi.o(.text) for atoi
    at_http.o(i.chk_post_rq) refers to at_http.o(i.get_next_field) for get_next_field
    at_http.o(i.http_add_header) refers to at_http.o(i.cgx_content_type) for cgx_content_type
    at_http.o(i.http_add_header) refers to at_lib.o(i.str_copy) for str_copy
    at_http.o(i.http_add_header) refers to at_http.o(i.utc_to_http) for utc_to_http
    at_http.o(i.http_date) refers to at_http.o(.constdata) for .constdata
    at_http.o(i.http_error_msg) refers to at_lib.o(i.str_copy) for str_copy
    at_http.o(i.http_error_msg) refers to net_config_http.o(.constdata) for http_auth_dev
    at_http.o(i.http_error_msg) refers to http_err.o(.constdata) for http_err_head
    at_http.o(i.http_error_msg) refers to http_err.o(.constdata) for http_err_501
    at_http.o(i.http_error_msg) refers to http_err.o(.constdata) for http_err_foot
    at_http.o(i.http_error_msg) refers to http_err.o(.constdata) for http_err_401
    at_http.o(i.http_error_msg) refers to http_err.o(.constdata) for http_err_404
    at_http.o(i.http_file_type) refers to at_lib.o(i.str_scomp) for str_scomp
    at_http.o(i.http_file_type) refers to at_http.o(.constdata) for .constdata
    at_http.o(i.http_get_content_type) refers to at_http.o(.data) for .data
    at_http.o(i.http_get_content_type) refers to net_config_http.o(.bss) for http_session
    at_http.o(i.http_get_info) refers to at_tcp.o(i.tcp_get_adr) for tcp_get_adr
    at_http.o(i.http_get_info) refers to at_lib.o(i.mem_copy) for mem_copy
    at_http.o(i.http_get_info) refers to at_ethernet.o(i.eth_get_adr) for eth_get_adr
    at_http.o(i.http_get_info) refers to at_lib.o(i.mem_set) for mem_set
    at_http.o(i.http_get_info) refers to at_http.o(.data) for .data
    at_http.o(i.http_get_info) refers to net_config_http.o(.bss) for http_session
    at_http.o(i.http_get_lang) refers to at_http.o(.data) for .data
    at_http.o(i.http_get_lang) refers to net_config_http.o(.bss) for http_session
    at_http.o(i.http_get_session) refers to at_http.o(.data) for .data
    at_http.o(i.http_get_var) refers to at_http.o(i.hex2byte) for hex2byte
    at_http.o(i.http_get_var) refers to at_http.o(.data) for .data
    at_http.o(i.http_kill_session) refers to at_http_uif.o(i.http_fclose) for http_fclose
    at_http.o(i.http_kill_session) refers to at_http_cgi.o(i.cgi_process_data) for cgi_process_data
    at_http.o(i.http_kill_session) refers to at_mem.o(i.free_mem) for free_mem
    at_http.o(i.http_listener) refers to at_http.o(i.http_accept_host) for http_accept_host
    at_http.o(i.http_listener) refers to at_http.o(i.http_kill_session) for http_kill_session
    at_http.o(i.http_listener) refers to at_lib.o(i.str_scomp) for str_scomp
    at_http.o(i.http_listener) refers to at_http.o(i.http_proc_header) for http_proc_header
    at_http.o(i.http_listener) refers to at_http.o(i.http_strchr) for http_strchr
    at_http.o(i.http_listener) refers to at_http.o(i.http_file_type) for http_file_type
    at_http.o(i.http_listener) refers to at_http.o(i.http_open_file) for http_open_file
    at_http.o(i.http_listener) refers to at_http_cgi.o(i.cgi_process_var) for cgi_process_var
    at_http.o(i.http_listener) refers to at_http.o(i.chk_post_rq) for chk_post_rq
    at_http.o(i.http_listener) refers to at_http.o(i.http_proc_post) for http_proc_post
    at_http.o(i.http_listener) refers to at_mem.o(i.alloc_mem) for alloc_mem
    at_http.o(i.http_listener) refers to at_http.o(i.read_script_line) for read_script_line
    at_http.o(i.http_listener) refers to at_http.o(i.http_proc_multipart) for http_proc_multipart
    at_http.o(i.http_listener) refers to net_config_http.o(.bss) for http_session
    at_http.o(i.http_listener) refers to net_config_http.o(.constdata) for http_NumSess
    at_http.o(i.http_listener) refers to at_http.o(.data) for .data
    at_http.o(i.http_open_file) refers to at_mem.o(i.alloc_mem) for alloc_mem
    at_http.o(i.http_open_file) refers to at_http_uif.o(i.http_fopen) for http_fopen
    at_http.o(i.http_open_file) refers to at_http_uif.o(i.http_finfo) for http_finfo
    at_http.o(i.http_open_file) refers to at_lib.o(i.str_crc) for str_crc
    at_http.o(i.http_open_file) refers to at_mem.o(i.free_mem) for free_mem
    at_http.o(i.http_open_file) refers to at_web.o(.constdata) for FileTab
    at_http.o(i.http_open_file) refers to at_web.o(.constdata) for FileMD
    at_http.o(i.http_proc_header) refers to at_http.o(i.cmp_header) for cmp_header
    at_http.o(i.http_proc_header) refers to at_lib.o(i.b64_to_asc) for b64_to_asc
    at_http.o(i.http_proc_header) refers to at_lib.o(i.str_scomp) for str_scomp
    at_http.o(i.http_proc_header) refers to strlen.o(.text) for strlen
    at_http.o(i.http_proc_header) refers to strcmp.o(.text) for strcmp
    at_http.o(i.http_proc_header) refers to at_http.o(i.http_to_utc) for http_to_utc
    at_http.o(i.http_proc_header) refers to at_http.o(i.get_next_field) for get_next_field
    at_http.o(i.http_proc_header) refers to net_config_http.o(.constdata) for http_EnAuth
    at_http.o(i.http_proc_header) refers to net_config_http.o(.constdata) for http_auth_user
    at_http.o(i.http_proc_header) refers to net_config_http.o(.bss) for http_auth_passw
    at_http.o(i.http_proc_multipart) refers to at_http.o(i.search_delim) for search_delim
    at_http.o(i.http_proc_multipart) refers to at_http.o(i.cmp_header) for cmp_header
    at_http.o(i.http_proc_multipart) refers to at_lib.o(i.str_scomp) for str_scomp
    at_http.o(i.http_proc_multipart) refers to at_http.o(i.get_next_par) for get_next_par
    at_http.o(i.http_proc_multipart) refers to at_http.o(i.get_next_field) for get_next_field
    at_http.o(i.http_proc_multipart) refers to at_http.o(i.http_strchr) for http_strchr
    at_http.o(i.http_proc_multipart) refers to at_http_cgi.o(i.cgi_process_data) for cgi_process_data
    at_http.o(i.http_proc_multipart) refers to at_http.o(.data) for .data
    at_http.o(i.http_proc_post) refers to at_http_cgi.o(i.cgi_process_data) for cgi_process_data
    at_http.o(i.http_proc_post) refers to at_mem.o(i.alloc_mem) for alloc_mem
    at_http.o(i.http_proc_post) refers to at_lib.o(i.mem_copy) for mem_copy
    at_http.o(i.http_proc_post) refers to at_mem.o(i.free_mem) for free_mem
    at_http.o(i.http_proc_post) refers to at_http.o(.data) for .data
    at_http.o(i.http_proc_post) refers to net_config_http.o(.constdata) for MPool_Size
    at_http.o(i.http_to_utc) refers to atoi.o(.text) for atoi
    at_http.o(i.http_to_utc) refers to at_lib.o(i.str_scomp) for str_scomp
    at_http.o(i.http_to_utc) refers to at_http.o(.constdata) for .constdata
    at_http.o(i.init_http) refers to at_tcp.o(i.tcp_get_socket) for tcp_get_socket
    at_http.o(i.init_http) refers to at_tcp.o(i.tcp_listen) for tcp_listen
    at_http.o(i.init_http) refers to net_config_http.o(.bss) for http_session
    at_http.o(i.init_http) refers to net_config_http.o(.constdata) for http_NumSess
    at_http.o(i.init_http) refers to at_http.o(i.http_listener) for http_listener
    at_http.o(i.init_http) refers to net_config_http.o(.constdata) for tcp_DefTout
    at_http.o(i.init_http) refers to net_config_http.o(.constdata) for http_PortNum
    at_http.o(i.read_script_line) refers to at_http_uif.o(i.http_fgets) for http_fgets
    at_http.o(i.read_script_line) refers to strlen.o(.text) for strlen
    at_http.o(i.run_http_server) refers to at_tcp.o(i.tcp_get_state) for tcp_get_state
    at_http.o(i.run_http_server) refers to at_tcp.o(i.tcp_listen) for tcp_listen
    at_http.o(i.run_http_server) refers to at_http_uif.o(i.http_fclose) for http_fclose
    at_http.o(i.run_http_server) refers to at_http.o(i.read_script_line) for read_script_line
    at_http.o(i.run_http_server) refers to at_tcp.o(i.tcp_close) for tcp_close
    at_http.o(i.run_http_server) refers to at_http.o(i.http_kill_session) for http_kill_session
    at_http.o(i.run_http_server) refers to at_tcp.o(i.tcp_max_dsize) for tcp_max_dsize
    at_http.o(i.run_http_server) refers to at_tcp.o(i.tcp_get_buf) for tcp_get_buf
    at_http.o(i.run_http_server) refers to at_http.o(i.http_add_header) for http_add_header
    at_http.o(i.run_http_server) refers to at_http_uif.o(i.http_fread) for http_fread
    at_http.o(i.run_http_server) refers to at_lib.o(i.mem_copy) for mem_copy
    at_http.o(i.run_http_server) refers to at_tcp.o(i.tcp_send) for tcp_send
    at_http.o(i.run_http_server) refers to at_tcp.o(i.tcp_abort) for tcp_abort
    at_http.o(i.run_http_server) refers to at_http.o(i.http_strcpy) for http_strcpy
    at_http.o(i.run_http_server) refers to at_http_cgi.o(i.cgi_func) for cgi_func
    at_http.o(i.run_http_server) refers to at_http.o(i.http_open_file) for http_open_file
    at_http.o(i.run_http_server) refers to at_http.o(i.http_error_msg) for http_error_msg
    at_http.o(i.run_http_server) refers to at_http.o(.data) for .data
    at_http.o(i.run_http_server) refers to net_config_http.o(.constdata) for http_NumSess
    at_http.o(i.run_http_server) refers to net_config_http.o(.bss) for http_session
    at_http.o(i.run_http_server) refers to net_config_http.o(.constdata) for http_PortNum
    at_http.o(i.search_delim) refers to at_lib.o(i.str_scomp) for str_scomp
    at_http.o(i.utc_to_http) refers to printf6.o(i.__0sprintf$6) for __2sprintf
    at_http.o(i.utc_to_http) refers to at_http.o(.constdata) for .constdata
    at_ethernet.o(i.eth_chk_adr) refers to at_lib.o(i.mem_comp) for mem_comp
    at_ethernet.o(i.eth_chk_adr) refers to net_config_http.o(.data) for own_hw_adr
    at_ethernet.o(i.eth_get_adr) refers to at_arp.o(i.arp_get_adr) for arp_get_adr
    at_ethernet.o(i.eth_send_frame) refers to at_lib.o(i.mem_comp) for mem_comp
    at_ethernet.o(i.eth_send_frame) refers to at_lib.o(i.mem_test) for mem_test
    at_ethernet.o(i.eth_send_frame) refers to at_arp.o(i.is_subnet_bcast) for is_subnet_bcast
    at_ethernet.o(i.eth_send_frame) refers to at_arp.o(i.arp_cache_find) for arp_cache_find
    at_ethernet.o(i.eth_send_frame) refers to at_lib.o(i.mem_copy) for mem_copy
    at_ethernet.o(i.eth_send_frame) refers to emac_lpc17xx.o(.text) for send_frame
    at_ethernet.o(i.eth_send_frame) refers to at_ethernet.o(.constdata) for .constdata
    at_ethernet.o(i.eth_send_frame) refers to at_ip.o(.constdata) for IP_Broadcast
    at_ethernet.o(i.eth_send_frame) refers to net_config_http.o(.data) for own_hw_adr
    at_ethernet.o(i.init_eth_link) refers to emac_lpc17xx.o(.text) for int_disable_eth
    at_ethernet.o(i.init_eth_link) refers to emac_lpc17xx.o(.text) for init_ethernet
    at_ethernet.o(i.init_eth_link) refers to at_arp.o(i.init_arp) for init_arp
    at_ethernet.o(i.init_eth_link) refers to at_ethernet.o(.data) for .data
    at_ethernet.o(i.put_in_queue) refers to at_mem.o(i.free_mem) for free_mem
    at_ethernet.o(i.put_in_queue) refers to at_ethernet.o(.data) for .data
    at_ethernet.o(i.put_in_queue) refers to at_ethernet.o(.bss) for .bss
    at_ethernet.o(i.run_eth_link) refers to at_ethernet.o(i.poll_ethernet) for poll_ethernet
    at_ethernet.o(i.run_eth_link) refers to at_arp.o(i.arp_cache_update) for arp_cache_update
    at_ethernet.o(i.run_eth_link) refers to at_arp.o(i.process_arp) for process_arp
    at_ethernet.o(i.run_eth_link) refers to at_ip.o(i.ip_chk_frame) for ip_chk_frame
    at_ethernet.o(i.run_eth_link) refers to at_lib.o(i.mem_test) for mem_test
    at_ethernet.o(i.run_eth_link) refers to at_arp.o(i.arp_cache_add) for arp_cache_add
    at_ethernet.o(i.run_eth_link) refers to at_icmp.o(i.process_icmp) for process_icmp
    at_ethernet.o(i.run_eth_link) refers to at_ethernet.o(i.process_hl_igmp) for process_hl_igmp
    at_ethernet.o(i.run_eth_link) refers to net_config_http.o(.text) for process_hl_udp
    at_ethernet.o(i.run_eth_link) refers to at_mem.o(i.free_mem) for free_mem
    at_ethernet.o(i.run_eth_link) refers to at_system.o(.data) for sec_tick
    at_ethernet.o(i.run_eth_link) refers to at_ethernet.o(.data) for .data
    at_ethernet.o(i.run_eth_link) refers to at_ethernet.o(.bss) for .bss
    at_mem.o(i.alloc_mem) refers to emac_lpc17xx.o(.text) for int_disable_eth
    at_mem.o(i.alloc_mem) refers to net_config_http.o(.text) for sys_error
    at_mem.o(i.alloc_mem) refers to at_mem.o(.data) for .data
    at_mem.o(i.alloc_mem) refers to net_config_http.o(.constdata) for MPool_Size
    at_mem.o(i.alloc_mem) refers to net_config_http.o(.bss) for Mem_Pool
    at_mem.o(i.free_mem) refers to emac_lpc17xx.o(.text) for int_disable_eth
    at_mem.o(i.free_mem) refers to net_config_http.o(.text) for sys_error
    at_mem.o(i.free_mem) refers to net_config_http.o(.bss) for Mem_Pool
    at_mem.o(i.free_mem) refers to at_mem.o(.data) for .data
    at_mem.o(i.init_mem) refers to net_config_http.o(.bss) for Mem_Pool
    at_mem.o(i.init_mem) refers to net_config_http.o(.constdata) for MPool_Size
    at_mem.o(i.init_mem) refers to at_mem.o(.data) for .data
    at_mem.o(i.resize_mem) refers to emac_lpc17xx.o(.text) for int_disable_eth
    at_mem.o(i.resize_mem) refers to at_mem.o(.data) for .data
    at_system.o(i.init_TcpNet) refers to emac_lpc17xx.o(.text) for int_disable_eth
    at_system.o(i.init_TcpNet) refers to at_mem.o(i.init_mem) for init_mem
    at_system.o(i.init_TcpNet) refers to at_lib.o(i.mem_copy) for mem_copy
    at_system.o(i.init_TcpNet) refers to net_config_http.o(.text) for init_system
    at_system.o(i.init_TcpNet) refers to at_system.o(.data) for .data
    at_system.o(i.init_TcpNet) refers to net_config_http.o(.constdata) for tick_rate
    at_system.o(i.init_TcpNet) refers to net_config_http.o(.constdata) for nlocalm
    at_system.o(i.init_TcpNet) refers to at_system.o(.bss) for .bss
    at_system.o(i.main_TcpNet) refers to net_config_http.o(.text) for run_system
    at_system.o(i.main_TcpNet) refers to at_system.o(.data) for .data
    at_system.o(i.main_TcpNet) refers to net_config_http.o(.constdata) for tick_rate
    at_system.o(i.timer_tick) refers to at_system.o(.data) for .data
    at_arp.o(i.arp_cache_add) refers to at_lib.o(i.mem_comp) for mem_comp
    at_arp.o(i.arp_cache_add) refers to at_lib.o(i.is_subnet) for is_subnet
    at_arp.o(i.arp_cache_add) refers to at_lib.o(i.mem_test) for mem_test
    at_arp.o(i.arp_cache_add) refers to at_arp.o(i.arp_cache_alloc) for arp_cache_alloc
    at_arp.o(i.arp_cache_add) refers to at_lib.o(i.mem_copy) for mem_copy
    at_arp.o(i.arp_cache_add) refers to net_config_http.o(.bss) for arp_table
    at_arp.o(i.arp_cache_add) refers to net_config_http.o(.constdata) for arp_TabSize
    at_arp.o(i.arp_cache_add) refers to at_system.o(.bss) for localm
    at_arp.o(i.arp_cache_add) refers to net_config_http.o(.constdata) for arp_TimeOut
    at_arp.o(i.arp_cache_add) refers to net_config_http.o(.constdata) for arp_MaxRetry
    at_arp.o(i.arp_cache_alloc) refers to net_config_http.o(.bss) for arp_table
    at_arp.o(i.arp_cache_alloc) refers to net_config_http.o(.constdata) for arp_TabSize
    at_arp.o(i.arp_cache_alloc) refers to net_config_http.o(.constdata) for arp_TimeOut
    at_arp.o(i.arp_cache_find) refers to at_lib.o(i.mem_comp) for mem_comp
    at_arp.o(i.arp_cache_find) refers to at_lib.o(i.is_subnet) for is_subnet
    at_arp.o(i.arp_cache_find) refers to at_lib.o(i.mem_test) for mem_test
    at_arp.o(i.arp_cache_find) refers to at_arp.o(i.arp_cache_alloc) for arp_cache_alloc
    at_arp.o(i.arp_cache_find) refers to at_lib.o(i.mem_copy) for mem_copy
    at_arp.o(i.arp_cache_find) refers to at_arp.o(i.arp_send_req) for arp_send_req
    at_arp.o(i.arp_cache_find) refers to net_config_http.o(.bss) for arp_table
    at_arp.o(i.arp_cache_find) refers to net_config_http.o(.constdata) for arp_TabSize
    at_arp.o(i.arp_cache_find) refers to at_system.o(.bss) for localm
    at_arp.o(i.arp_cache_find) refers to at_ethernet.o(.constdata) for MAC_Broadcast
    at_arp.o(i.arp_cache_find) refers to net_config_http.o(.constdata) for arp_MaxRetry
    at_arp.o(i.arp_cache_find) refers to net_config_http.o(.constdata) for arp_Resend
    at_arp.o(i.arp_cache_ip) refers to at_lib.o(i.mem_comp) for mem_comp
    at_arp.o(i.arp_cache_ip) refers to at_arp.o(i.is_subnet_bcast) for is_subnet_bcast
    at_arp.o(i.arp_cache_ip) refers to at_arp.o(i.arp_cache_find) for arp_cache_find
    at_arp.o(i.arp_cache_ip) refers to at_ip.o(.constdata) for IP_Broadcast
    at_arp.o(i.arp_cache_update) refers to at_lib.o(i.mem_comp) for mem_comp
    at_arp.o(i.arp_cache_update) refers to at_arp.o(i.arp_send_req) for arp_send_req
    at_arp.o(i.arp_cache_update) refers to net_config_http.o(.constdata) for arp_Resend
    at_arp.o(i.arp_cache_update) refers to at_arp.o(.data) for .data
    at_arp.o(i.arp_cache_update) refers to net_config_http.o(.constdata) for arp_TabSize
    at_arp.o(i.arp_cache_update) refers to net_config_http.o(.bss) for arp_table
    at_arp.o(i.arp_cache_update) refers to at_system.o(.bss) for localm
    at_arp.o(i.arp_cache_update) refers to at_ip.o(.constdata) for IP_Broadcast
    at_arp.o(i.arp_cache_update) refers to net_config_http.o(.constdata) for arp_TimeOut
    at_arp.o(i.arp_get_adr) refers to at_lib.o(i.mem_comp) for mem_comp
    at_arp.o(i.arp_get_adr) refers to net_config_http.o(.bss) for arp_table
    at_arp.o(i.arp_get_adr) refers to net_config_http.o(.constdata) for arp_TabSize
    at_arp.o(i.arp_get_response) refers to at_lib.o(i.mem_comp) for mem_comp
    at_arp.o(i.arp_get_response) refers to at_lib.o(i.mem_copy) for mem_copy
    at_arp.o(i.arp_get_response) refers to net_config_http.o(.bss) for arp_table
    at_arp.o(i.arp_get_response) refers to net_config_http.o(.constdata) for arp_TabSize
    at_arp.o(i.arp_get_response) refers to net_config_http.o(.constdata) for arp_TimeOut
    at_arp.o(i.arp_get_response) refers to net_config_http.o(.constdata) for arp_MaxRetry
    at_arp.o(i.arp_send_reply) refers to at_mem.o(i.alloc_mem) for alloc_mem
    at_arp.o(i.arp_send_reply) refers to at_lib.o(i.mem_copy) for mem_copy
    at_arp.o(i.arp_send_reply) refers to at_arp.o(i.arp_cache_add) for arp_cache_add
    at_arp.o(i.arp_send_reply) refers to emac_lpc17xx.o(.text) for send_frame
    at_arp.o(i.arp_send_reply) refers to at_mem.o(i.free_mem) for free_mem
    at_arp.o(i.arp_send_reply) refers to net_config_http.o(.data) for own_hw_adr
    at_arp.o(i.arp_send_reply) refers to at_system.o(.bss) for localm
    at_arp.o(i.arp_send_req) refers to at_mem.o(i.alloc_mem) for alloc_mem
    at_arp.o(i.arp_send_req) refers to at_lib.o(i.mem_copy) for mem_copy
    at_arp.o(i.arp_send_req) refers to at_lib.o(i.mem_set) for mem_set
    at_arp.o(i.arp_send_req) refers to emac_lpc17xx.o(.text) for send_frame
    at_arp.o(i.arp_send_req) refers to at_mem.o(i.free_mem) for free_mem
    at_arp.o(i.arp_send_req) refers to at_ethernet.o(.constdata) for MAC_Broadcast
    at_arp.o(i.arp_send_req) refers to net_config_http.o(.data) for own_hw_adr
    at_arp.o(i.arp_send_req) refers to at_system.o(.bss) for localm
    at_arp.o(i.arp_send_req) refers to net_config_http.o(.bss) for arp_table
    at_arp.o(i.init_arp) refers to net_config_http.o(.bss) for arp_table
    at_arp.o(i.init_arp) refers to net_config_http.o(.constdata) for arp_TabSize
    at_arp.o(i.is_subnet_bcast) refers to at_lib.o(i.mem_copy) for mem_copy
    at_arp.o(i.is_subnet_bcast) refers to at_lib.o(i.is_subnet) for is_subnet
    at_arp.o(i.is_subnet_bcast) refers to at_system.o(.bss) for localm
    at_arp.o(i.process_arp) refers to at_lib.o(i.mem_comp) for mem_comp
    at_arp.o(i.process_arp) refers to at_arp.o(i.arp_get_response) for arp_get_response
    at_arp.o(i.process_arp) refers to at_arp.o(i.arp_send_reply) for arp_send_reply
    at_arp.o(i.process_arp) refers to at_system.o(.bss) for localm
    at_arp.o(i.process_arp) refers to net_config_http.o(.data) for own_hw_adr
    at_ip.o(i.ip_chk_frame) refers to at_lib.o(i.SwapB) for SwapB
    at_ip.o(i.ip_chk_frame) refers to at_lib.o(i.mem_comp) for mem_comp
    at_ip.o(i.ip_chk_frame) refers to net_config_http.o(.text) for igmp_is_member
    at_ip.o(i.ip_chk_frame) refers to at_lib.o(i.mem_copy) for mem_copy
    at_ip.o(i.ip_chk_frame) refers to at_ethernet.o(i.eth_chk_adr) for eth_chk_adr
    at_ip.o(i.ip_chk_frame) refers to at_ip.o(i.ip_get_chksum) for ip_get_chksum
    at_ip.o(i.ip_chk_frame) refers to at_system.o(.bss) for localm
    at_ip.o(i.ip_chk_frame) refers to at_ip.o(.constdata) for .constdata
    at_ip.o(i.ip_get_chksum) refers to at_lib.o(i.CalcChksum) for CalcChksum
    at_ip.o(i.ip_get_locadr) refers to at_lib.o(i.is_subnet) for is_subnet
    at_ip.o(i.ip_get_locadr) refers to at_lib.o(i.mem_test) for mem_test
    at_ip.o(i.ip_get_locadr) refers to net_config_http.o(.constdata) for netif_cfg
    at_ip.o(i.ip_get_locadr) refers to at_ip.o(.data) for .data
    at_ip.o(i.ip_get_locadr) refers to at_system.o(.bss) for localm
    at_ip.o(i.ip_send_frame) refers to at_lib.o(i.SwapB) for SwapB
    at_ip.o(i.ip_send_frame) refers to at_ip.o(i.ip_get_locadr) for ip_get_locadr
    at_ip.o(i.ip_send_frame) refers to at_lib.o(i.mem_copy) for mem_copy
    at_ip.o(i.ip_send_frame) refers to at_ip.o(i.ip_get_chksum) for ip_get_chksum
    at_ip.o(i.ip_send_frame) refers to net_config_http.o(.text) for dispatch_frame
    at_ip.o(i.ip_send_frame) refers to at_ip.o(.data) for .data
    at_icmp.o(i.process_icmp) refers to at_lib.o(i.CalcChksum) for CalcChksum
    at_icmp.o(i.process_icmp) refers to at_mem.o(i.alloc_mem) for alloc_mem
    at_icmp.o(i.process_icmp) refers to at_lib.o(i.mem_copy) for mem_copy
    at_icmp.o(i.process_icmp) refers to at_ip.o(i.ip_send_frame) for ip_send_frame
    at_icmp.o(i.process_icmp) refers to at_mem.o(i.free_mem) for free_mem
    at_lib.o(i.CalcChksum) refers to at_lib.o(i.CalcChksumBuf) for CalcChksumBuf
    at_lib.o(i.asc_to_b64) refers to at_lib.o(i.encode_b64) for encode_b64
    at_lib.o(i.bin_to_b64) refers to at_lib.o(i.encode_b64) for encode_b64
    at_lib.o(i.is_subnet) refers to at_lib.o(i.mem_copy) for mem_copy
    at_lib.o(i.str_crc) refers to at_lib.o(i.get_crc) for get_crc
    at_web.o(.constdata) refers to at_web.o(.constdata) for Web
    entry.o(.ARM.Collect$$$$00000000) refers (Special) to entry7.o(.ARM.Collect$$$$00000007) for _main_init
    entry.o(.ARM.Collect$$$$00000000) refers (Special) to entry5.o(.ARM.Collect$$$$00000004) for _main_scatterload
    entry.o(.ARM.Collect$$$$00000000) refers (Special) to entry2.o(.ARM.Collect$$$$00000001) for _main_stk
    printfb.o(i.__0fprintf$bare) refers to printfb.o(i._printf_core) for _printf_core
    printfb.o(i.__0fprintf$bare) refers to fputc.o(i.fputc) for fputc
    printfb.o(i.__0printf$bare) refers to printfb.o(i._printf_core) for _printf_core
    printfb.o(i.__0printf$bare) refers to fputc.o(i.fputc) for fputc
    printfb.o(i.__0printf$bare) refers to stdout.o(.data) for __stdout
    printfb.o(i.__0snprintf$bare) refers to printfb.o(i._printf_core) for _printf_core
    printfb.o(i.__0snprintf$bare) refers to printfb.o(i._snputc) for _snputc
    printfb.o(i.__0sprintf$bare) refers to printfb.o(i._printf_core) for _printf_core
    printfb.o(i.__0sprintf$bare) refers to printfb.o(i._sputc) for _sputc
    printfb.o(i.__0vfprintf$bare) refers to printfb.o(i._printf_core) for _printf_core
    printfb.o(i.__0vfprintf$bare) refers to fputc.o(i.fputc) for fputc
    printfb.o(i.__0vprintf$bare) refers to printfb.o(i._printf_core) for _printf_core
    printfb.o(i.__0vprintf$bare) refers to fputc.o(i.fputc) for fputc
    printfb.o(i.__0vprintf$bare) refers to stdout.o(.data) for __stdout
    printfb.o(i.__0vsnprintf$bare) refers to printfb.o(i._printf_core) for _printf_core
    printfb.o(i.__0vsnprintf$bare) refers to printfb.o(i._snputc) for _snputc
    printfb.o(i.__0vsprintf$bare) refers to printfb.o(i._printf_core) for _printf_core
    printfb.o(i.__0vsprintf$bare) refers to printfb.o(i._sputc) for _sputc
    printf0.o(i.__0fprintf$0) refers to printf0.o(i._printf_core) for _printf_core
    printf0.o(i.__0fprintf$0) refers to fputc.o(i.fputc) for fputc
    printf0.o(i.__0printf$0) refers to printf0.o(i._printf_core) for _printf_core
    printf0.o(i.__0printf$0) refers to fputc.o(i.fputc) for fputc
    printf0.o(i.__0printf$0) refers to stdout.o(.data) for __stdout
    printf0.o(i.__0snprintf$0) refers to printf0.o(i._printf_core) for _printf_core
    printf0.o(i.__0snprintf$0) refers to printf0.o(i._snputc) for _snputc
    printf0.o(i.__0sprintf$0) refers to printf0.o(i._printf_core) for _printf_core
    printf0.o(i.__0sprintf$0) refers to printf0.o(i._sputc) for _sputc
    printf0.o(i.__0vfprintf$0) refers to printf0.o(i._printf_core) for _printf_core
    printf0.o(i.__0vfprintf$0) refers to fputc.o(i.fputc) for fputc
    printf0.o(i.__0vprintf$0) refers to printf0.o(i._printf_core) for _printf_core
    printf0.o(i.__0vprintf$0) refers to fputc.o(i.fputc) for fputc
    printf0.o(i.__0vprintf$0) refers to stdout.o(.data) for __stdout
    printf0.o(i.__0vsnprintf$0) refers to printf0.o(i._printf_core) for _printf_core
    printf0.o(i.__0vsnprintf$0) refers to printf0.o(i._snputc) for _snputc
    printf0.o(i.__0vsprintf$0) refers to printf0.o(i._printf_core) for _printf_core
    printf0.o(i.__0vsprintf$0) refers to printf0.o(i._sputc) for _sputc
    printf1.o(i.__0fprintf$1) refers to printf1.o(i._printf_core) for _printf_core
    printf1.o(i.__0fprintf$1) refers to fputc.o(i.fputc) for fputc
    printf1.o(i.__0printf$1) refers to printf1.o(i._printf_core) for _printf_core
    printf1.o(i.__0printf$1) refers to fputc.o(i.fputc) for fputc
    printf1.o(i.__0printf$1) refers to stdout.o(.data) for __stdout
    printf1.o(i.__0snprintf$1) refers to printf1.o(i._printf_core) for _printf_core
    printf1.o(i.__0snprintf$1) refers to printf1.o(i._snputc) for _snputc
    printf1.o(i.__0sprintf$1) refers to printf1.o(i._printf_core) for _printf_core
    printf1.o(i.__0sprintf$1) refers to printf1.o(i._sputc) for _sputc
    printf1.o(i.__0vfprintf$1) refers to printf1.o(i._printf_core) for _printf_core
    printf1.o(i.__0vfprintf$1) refers to fputc.o(i.fputc) for fputc
    printf1.o(i.__0vprintf$1) refers to printf1.o(i._printf_core) for _printf_core
    printf1.o(i.__0vprintf$1) refers to fputc.o(i.fputc) for fputc
    printf1.o(i.__0vprintf$1) refers to stdout.o(.data) for __stdout
    printf1.o(i.__0vsnprintf$1) refers to printf1.o(i._printf_core) for _printf_core
    printf1.o(i.__0vsnprintf$1) refers to printf1.o(i._snputc) for _snputc
    printf1.o(i.__0vsprintf$1) refers to printf1.o(i._printf_core) for _printf_core
    printf1.o(i.__0vsprintf$1) refers to printf1.o(i._sputc) for _sputc
    printf1.o(i._printf_core) refers to uidiv.o(.text) for __aeabi_uidivmod
    printf2.o(i.__0fprintf$2) refers to printf2.o(i._printf_core) for _printf_core
    printf2.o(i.__0fprintf$2) refers to fputc.o(i.fputc) for fputc
    printf2.o(i.__0printf$2) refers to printf2.o(i._printf_core) for _printf_core
    printf2.o(i.__0printf$2) refers to fputc.o(i.fputc) for fputc
    printf2.o(i.__0printf$2) refers to stdout.o(.data) for __stdout
    printf2.o(i.__0snprintf$2) refers to printf2.o(i._printf_core) for _printf_core
    printf2.o(i.__0snprintf$2) refers to printf2.o(i._snputc) for _snputc
    printf2.o(i.__0sprintf$2) refers to printf2.o(i._printf_core) for _printf_core
    printf2.o(i.__0sprintf$2) refers to printf2.o(i._sputc) for _sputc
    printf2.o(i.__0vfprintf$2) refers to printf2.o(i._printf_core) for _printf_core
    printf2.o(i.__0vfprintf$2) refers to fputc.o(i.fputc) for fputc
    printf2.o(i.__0vprintf$2) refers to printf2.o(i._printf_core) for _printf_core
    printf2.o(i.__0vprintf$2) refers to fputc.o(i.fputc) for fputc
    printf2.o(i.__0vprintf$2) refers to stdout.o(.data) for __stdout
    printf2.o(i.__0vsnprintf$2) refers to printf2.o(i._printf_core) for _printf_core
    printf2.o(i.__0vsnprintf$2) refers to printf2.o(i._snputc) for _snputc
    printf2.o(i.__0vsprintf$2) refers to printf2.o(i._printf_core) for _printf_core
    printf2.o(i.__0vsprintf$2) refers to printf2.o(i._sputc) for _sputc
    printf3.o(i.__0fprintf$3) refers to printf3.o(i._printf_core) for _printf_core
    printf3.o(i.__0fprintf$3) refers to fputc.o(i.fputc) for fputc
    printf3.o(i.__0printf$3) refers to printf3.o(i._printf_core) for _printf_core
    printf3.o(i.__0printf$3) refers to fputc.o(i.fputc) for fputc
    printf3.o(i.__0printf$3) refers to stdout.o(.data) for __stdout
    printf3.o(i.__0snprintf$3) refers to printf3.o(i._printf_core) for _printf_core
    printf3.o(i.__0snprintf$3) refers to printf3.o(i._snputc) for _snputc
    printf3.o(i.__0sprintf$3) refers to printf3.o(i._printf_core) for _printf_core
    printf3.o(i.__0sprintf$3) refers to printf3.o(i._sputc) for _sputc
    printf3.o(i.__0vfprintf$3) refers to printf3.o(i._printf_core) for _printf_core
    printf3.o(i.__0vfprintf$3) refers to fputc.o(i.fputc) for fputc
    printf3.o(i.__0vprintf$3) refers to printf3.o(i._printf_core) for _printf_core
    printf3.o(i.__0vprintf$3) refers to fputc.o(i.fputc) for fputc
    printf3.o(i.__0vprintf$3) refers to stdout.o(.data) for __stdout
    printf3.o(i.__0vsnprintf$3) refers to printf3.o(i._printf_core) for _printf_core
    printf3.o(i.__0vsnprintf$3) refers to printf3.o(i._snputc) for _snputc
    printf3.o(i.__0vsprintf$3) refers to printf3.o(i._printf_core) for _printf_core
    printf3.o(i.__0vsprintf$3) refers to printf3.o(i._sputc) for _sputc
    printf3.o(i._printf_core) refers to uidiv.o(.text) for __aeabi_uidivmod
    printf4.o(i.__0fprintf$4) refers to printf4.o(i._printf_core) for _printf_core
    printf4.o(i.__0fprintf$4) refers to fputc.o(i.fputc) for fputc
    printf4.o(i.__0printf$4) refers to printf4.o(i._printf_core) for _printf_core
    printf4.o(i.__0printf$4) refers to fputc.o(i.fputc) for fputc
    printf4.o(i.__0printf$4) refers to stdout.o(.data) for __stdout
    printf4.o(i.__0snprintf$4) refers to printf4.o(i._printf_core) for _printf_core
    printf4.o(i.__0snprintf$4) refers to printf4.o(i._snputc) for _snputc
    printf4.o(i.__0sprintf$4) refers to printf4.o(i._printf_core) for _printf_core
    printf4.o(i.__0sprintf$4) refers to printf4.o(i._sputc) for _sputc
    printf4.o(i.__0vfprintf$4) refers to printf4.o(i._printf_core) for _printf_core
    printf4.o(i.__0vfprintf$4) refers to fputc.o(i.fputc) for fputc
    printf4.o(i.__0vprintf$4) refers to printf4.o(i._printf_core) for _printf_core
    printf4.o(i.__0vprintf$4) refers to fputc.o(i.fputc) for fputc
    printf4.o(i.__0vprintf$4) refers to stdout.o(.data) for __stdout
    printf4.o(i.__0vsnprintf$4) refers to printf4.o(i._printf_core) for _printf_core
    printf4.o(i.__0vsnprintf$4) refers to printf4.o(i._snputc) for _snputc
    printf4.o(i.__0vsprintf$4) refers to printf4.o(i._printf_core) for _printf_core
    printf4.o(i.__0vsprintf$4) refers to printf4.o(i._sputc) for _sputc
    printf4.o(i._printf_core) refers to uldiv.o(.text) for __aeabi_uldivmod
    printf5.o(i.__0fprintf$5) refers to printf5.o(i._printf_core) for _printf_core
    printf5.o(i.__0fprintf$5) refers to fputc.o(i.fputc) for fputc
    printf5.o(i.__0printf$5) refers to printf5.o(i._printf_core) for _printf_core
    printf5.o(i.__0printf$5) refers to fputc.o(i.fputc) for fputc
    printf5.o(i.__0printf$5) refers to stdout.o(.data) for __stdout
    printf5.o(i.__0snprintf$5) refers to printf5.o(i._printf_core) for _printf_core
    printf5.o(i.__0snprintf$5) refers to printf5.o(i._snputc) for _snputc
    printf5.o(i.__0sprintf$5) refers to printf5.o(i._printf_core) for _printf_core
    printf5.o(i.__0sprintf$5) refers to printf5.o(i._sputc) for _sputc
    printf5.o(i.__0vfprintf$5) refers to printf5.o(i._printf_core) for _printf_core
    printf5.o(i.__0vfprintf$5) refers to fputc.o(i.fputc) for fputc
    printf5.o(i.__0vprintf$5) refers to printf5.o(i._printf_core) for _printf_core
    printf5.o(i.__0vprintf$5) refers to fputc.o(i.fputc) for fputc
    printf5.o(i.__0vprintf$5) refers to stdout.o(.data) for __stdout
    printf5.o(i.__0vsnprintf$5) refers to printf5.o(i._printf_core) for _printf_core
    printf5.o(i.__0vsnprintf$5) refers to printf5.o(i._snputc) for _snputc
    printf5.o(i.__0vsprintf$5) refers to printf5.o(i._printf_core) for _printf_core
    printf5.o(i.__0vsprintf$5) refers to printf5.o(i._sputc) for _sputc
    printf5.o(i._printf_core) refers to uldiv.o(.text) for __aeabi_uldivmod
    printf6.o(i.__0fprintf$6) refers to printf6.o(i._printf_core) for _printf_core
    printf6.o(i.__0fprintf$6) refers to fputc.o(i.fputc) for fputc
    printf6.o(i.__0printf$6) refers to printf6.o(i._printf_core) for _printf_core
    printf6.o(i.__0printf$6) refers to fputc.o(i.fputc) for fputc
    printf6.o(i.__0printf$6) refers to stdout.o(.data) for __stdout
    printf6.o(i.__0snprintf$6) refers to printf6.o(i._printf_core) for _printf_core
    printf6.o(i.__0snprintf$6) refers to printf6.o(i._snputc) for _snputc
    printf6.o(i.__0sprintf$6) refers to printf6.o(i._printf_core) for _printf_core
    printf6.o(i.__0sprintf$6) refers to printf6.o(i._sputc) for _sputc
    printf6.o(i.__0vfprintf$6) refers to printf6.o(i._printf_core) for _printf_core
    printf6.o(i.__0vfprintf$6) refers to fputc.o(i.fputc) for fputc
    printf6.o(i.__0vprintf$6) refers to printf6.o(i._printf_core) for _printf_core
    printf6.o(i.__0vprintf$6) refers to fputc.o(i.fputc) for fputc
    printf6.o(i.__0vprintf$6) refers to stdout.o(.data) for __stdout
    printf6.o(i.__0vsnprintf$6) refers to printf6.o(i._printf_core) for _printf_core
    printf6.o(i.__0vsnprintf$6) refers to printf6.o(i._snputc) for _snputc
    printf6.o(i.__0vsprintf$6) refers to printf6.o(i._printf_core) for _printf_core
    printf6.o(i.__0vsprintf$6) refers to printf6.o(i._sputc) for _sputc
    printf6.o(i._printf_core) refers to printf6.o(i._printf_pre_padding) for _printf_pre_padding
    printf6.o(i._printf_core) refers to uidiv.o(.text) for __aeabi_uidivmod
    printf6.o(i._printf_core) refers to printf6.o(i._printf_post_padding) for _printf_post_padding
    printf7.o(i.__0fprintf$7) refers to printf7.o(i._printf_core) for _printf_core
    printf7.o(i.__0fprintf$7) refers to fputc.o(i.fputc) for fputc
    printf7.o(i.__0printf$7) refers to printf7.o(i._printf_core) for _printf_core
    printf7.o(i.__0printf$7) refers to fputc.o(i.fputc) for fputc
    printf7.o(i.__0printf$7) refers to stdout.o(.data) for __stdout
    printf7.o(i.__0snprintf$7) refers to printf7.o(i._printf_core) for _printf_core
    printf7.o(i.__0snprintf$7) refers to printf7.o(i._snputc) for _snputc
    printf7.o(i.__0sprintf$7) refers to printf7.o(i._printf_core) for _printf_core
    printf7.o(i.__0sprintf$7) refers to printf7.o(i._sputc) for _sputc
    printf7.o(i.__0vfprintf$7) refers to printf7.o(i._printf_core) for _printf_core
    printf7.o(i.__0vfprintf$7) refers to fputc.o(i.fputc) for fputc
    printf7.o(i.__0vprintf$7) refers to printf7.o(i._printf_core) for _printf_core
    printf7.o(i.__0vprintf$7) refers to fputc.o(i.fputc) for fputc
    printf7.o(i.__0vprintf$7) refers to stdout.o(.data) for __stdout
    printf7.o(i.__0vsnprintf$7) refers to printf7.o(i._printf_core) for _printf_core
    printf7.o(i.__0vsnprintf$7) refers to printf7.o(i._snputc) for _snputc
    printf7.o(i.__0vsprintf$7) refers to printf7.o(i._printf_core) for _printf_core
    printf7.o(i.__0vsprintf$7) refers to printf7.o(i._sputc) for _sputc
    printf7.o(i._printf_core) refers to printf7.o(i._printf_pre_padding) for _printf_pre_padding
    printf7.o(i._printf_core) refers to uldiv.o(.text) for __aeabi_uldivmod
    printf7.o(i._printf_core) refers to printf7.o(i._printf_post_padding) for _printf_post_padding
    printf8.o(i.__0fprintf$8) refers to printf8.o(i._printf_core) for _printf_core
    printf8.o(i.__0fprintf$8) refers to fputc.o(i.fputc) for fputc
    printf8.o(i.__0printf$8) refers to printf8.o(i._printf_core) for _printf_core
    printf8.o(i.__0printf$8) refers to fputc.o(i.fputc) for fputc
    printf8.o(i.__0printf$8) refers to stdout.o(.data) for __stdout
    printf8.o(i.__0snprintf$8) refers to printf8.o(i._printf_core) for _printf_core
    printf8.o(i.__0snprintf$8) refers to printf8.o(i._snputc) for _snputc
    printf8.o(i.__0sprintf$8) refers to printf8.o(i._printf_core) for _printf_core
    printf8.o(i.__0sprintf$8) refers to printf8.o(i._sputc) for _sputc
    printf8.o(i.__0vfprintf$8) refers to printf8.o(i._printf_core) for _printf_core
    printf8.o(i.__0vfprintf$8) refers to fputc.o(i.fputc) for fputc
    printf8.o(i.__0vprintf$8) refers to printf8.o(i._printf_core) for _printf_core
    printf8.o(i.__0vprintf$8) refers to fputc.o(i.fputc) for fputc
    printf8.o(i.__0vprintf$8) refers to stdout.o(.data) for __stdout
    printf8.o(i.__0vsnprintf$8) refers to printf8.o(i._printf_core) for _printf_core
    printf8.o(i.__0vsnprintf$8) refers to printf8.o(i._snputc) for _snputc
    printf8.o(i.__0vsprintf$8) refers to printf8.o(i._printf_core) for _printf_core
    printf8.o(i.__0vsprintf$8) refers to printf8.o(i._sputc) for _sputc
    printf8.o(i._printf_core) refers to printf8.o(i._printf_pre_padding) for _printf_pre_padding
    printf8.o(i._printf_core) refers to uldiv.o(.text) for __aeabi_uldivmod
    printf8.o(i._printf_core) refers to printf8.o(i._printf_post_padding) for _printf_post_padding
    printfa.o(i.__0fprintf) refers (Special) to iusefp.o(.text) for __I$use$fp
    printfa.o(i.__0fprintf) refers to printfa.o(i._printf_core) for _printf_core
    printfa.o(i.__0fprintf) refers to fputc.o(i.fputc) for fputc
    printfa.o(i.__0printf) refers (Special) to iusefp.o(.text) for __I$use$fp
    printfa.o(i.__0printf) refers to printfa.o(i._printf_core) for _printf_core
    printfa.o(i.__0printf) refers to fputc.o(i.fputc) for fputc
    printfa.o(i.__0printf) refers to stdout.o(.data) for __stdout
    printfa.o(i.__0snprintf) refers (Special) to iusefp.o(.text) for __I$use$fp
    printfa.o(i.__0snprintf) refers to printfa.o(i._printf_core) for _printf_core
    printfa.o(i.__0snprintf) refers to printfa.o(i._snputc) for _snputc
    printfa.o(i.__0sprintf) refers (Special) to iusefp.o(.text) for __I$use$fp
    printfa.o(i.__0sprintf) refers to printfa.o(i._printf_core) for _printf_core
    printfa.o(i.__0sprintf) refers to printfa.o(i._sputc) for _sputc
    printfa.o(i.__0vfprintf) refers (Special) to iusefp.o(.text) for __I$use$fp
    printfa.o(i.__0vfprintf) refers to printfa.o(i._printf_core) for _printf_core
    printfa.o(i.__0vfprintf) refers to fputc.o(i.fputc) for fputc
    printfa.o(i.__0vprintf) refers (Special) to iusefp.o(.text) for __I$use$fp
    printfa.o(i.__0vprintf) refers to printfa.o(i._printf_core) for _printf_core
    printfa.o(i.__0vprintf) refers to fputc.o(i.fputc) for fputc
    printfa.o(i.__0vprintf) refers to stdout.o(.data) for __stdout
    printfa.o(i.__0vsnprintf) refers (Special) to iusefp.o(.text) for __I$use$fp
    printfa.o(i.__0vsnprintf) refers to printfa.o(i._printf_core) for _printf_core
    printfa.o(i.__0vsnprintf) refers to printfa.o(i._snputc) for _snputc
    printfa.o(i.__0vsprintf) refers (Special) to iusefp.o(.text) for __I$use$fp
    printfa.o(i.__0vsprintf) refers to printfa.o(i._printf_core) for _printf_core
    printfa.o(i.__0vsprintf) refers to printfa.o(i._sputc) for _sputc
    printfa.o(i._fp_digits) refers (Special) to iusefp.o(.text) for __I$use$fp
    printfa.o(i._fp_digits) refers to dmul.o(.text) for __aeabi_dmul
    printfa.o(i._fp_digits) refers to ddiv.o(.text) for __aeabi_ddiv
    printfa.o(i._fp_digits) refers to cdrcmple.o(.text) for __aeabi_cdrcmple
    printfa.o(i._fp_digits) refers to dadd.o(.text) for __aeabi_dadd
    printfa.o(i._fp_digits) refers to dfixul.o(.text) for __aeabi_d2ulz
    printfa.o(i._fp_digits) refers to uldiv.o(.text) for __aeabi_uldivmod
    printfa.o(i._printf_core) refers (Special) to iusefp.o(.text) for __I$use$fp
    printfa.o(i._printf_core) refers to printfa.o(i._printf_pre_padding) for _printf_pre_padding
    printfa.o(i._printf_core) refers to uldiv.o(.text) for __aeabi_uldivmod
    printfa.o(i._printf_core) refers to printfa.o(i._printf_post_padding) for _printf_post_padding
    printfa.o(i._printf_core) refers to printfa.o(i._fp_digits) for _fp_digits
    printfa.o(i._printf_core) refers to uidiv.o(.text) for __aeabi_uidivmod
    printfa.o(i._printf_post_padding) refers (Special) to iusefp.o(.text) for __I$use$fp
    printfa.o(i._printf_pre_padding) refers (Special) to iusefp.o(.text) for __I$use$fp
    printfa.o(i._snputc) refers (Special) to iusefp.o(.text) for __I$use$fp
    printfa.o(i._sputc) refers (Special) to iusefp.o(.text) for __I$use$fp
    atoi.o(.text) refers to errno.o(i.__aeabi_errno_addr) for __aeabi_errno_addr
    atoi.o(.text) refers to strtol.o(.text) for strtol
    entry2.o(.ARM.Collect$$$$00000001) refers to entry2.o(.ARM.Collect$$$$00002712) for __lit__00000000
    entry2.o(.ARM.Collect$$$$00002712) refers to startup_lpc17xx.o(STACK) for __initial_sp
    entry2.o(__vectab_stack_and_reset_area) refers to startup_lpc17xx.o(STACK) for __initial_sp
    entry2.o(__vectab_stack_and_reset_area) refers to entry.o(.ARM.Collect$$$$00000000) for __main
    entry5.o(.ARM.Collect$$$$00000004) refers to init.o(.text) for __scatterload
    entry7.o(.ARM.Collect$$$$00000007) refers to main.o(.text) for main
    fputc.o(i.fputc) refers (Special) to iusesemip.o(.text) for __I$use$semihosting$fputc
    uldiv.o(.text) refers to llushr.o(.text) for __aeabi_llsr
    uldiv.o(.text) refers to llshl.o(.text) for __aeabi_llsl
    errno.o(i.__aeabi_errno_addr) refers to errno.o(.data) for .data
    errno.o(i.__read_errno) refers to errno.o(.data) for .data
    errno.o(i.__set_errno) refers to errno.o(.data) for .data
    strtol.o(.text) refers to ctype_o.o(.text) for __rt_ctype_table
    strtol.o(.text) refers to _strtoul.o(.text) for _strtoul
    strtol.o(.text) refers to errno.o(i.__aeabi_errno_addr) for __aeabi_errno_addr
    dadd.o(.text) refers to llshl.o(.text) for __aeabi_llsl
    dadd.o(.text) refers to llsshr.o(.text) for __aeabi_lasr
    dadd.o(.text) refers to depilogue.o(.text) for _double_epilogue
    dmul.o(.text) refers to depilogue.o(.text) for _double_epilogue
    ddiv.o(.text) refers to depilogue.o(.text) for _double_round
    dfixul.o(.text) refers to llushr.o(.text) for __aeabi_llsr
    dfixul.o(.text) refers to llshl.o(.text) for __aeabi_llsl
    init.o(.text) refers to entry5.o(.ARM.Collect$$$$00000004) for __main_after_scatterload
    ctype_o.o(.text) refers to ctype_o.o(.constdata) for .constdata
    ctype_o.o(.constdata) refers to ctype_o.o(.constdata) for __ctype_table
    isalnum_o.o(.text) refers to ctype_o.o(.text) for __rt_ctype_table
    isalpha_o.o(.text) refers to ctype_o.o(.text) for __rt_ctype_table
    isblank_o.o(.text) refers to ctype_o.o(.constdata) for __ctype_table
    iscntrl_o.o(.text) refers to ctype_o.o(.text) for __rt_ctype_table
    isdigit_o.o(.text) refers to ctype_o.o(.text) for __rt_ctype_table
    isgraph_o.o(.text) refers to ctype_o.o(.text) for __rt_ctype_table
    islower_o.o(.text) refers to ctype_o.o(.text) for __rt_ctype_table
    isprint_o.o(.text) refers to ctype_o.o(.text) for __rt_ctype_table
    ispunct_o.o(.text) refers to ctype_o.o(.text) for __rt_ctype_table
    isspace_o.o(.text) refers to ctype_o.o(.text) for __rt_ctype_table
    isupper_o.o(.text) refers to ctype_o.o(.text) for __rt_ctype_table
    isxdigit_o.o(.text) refers to ctype_o.o(.text) for __rt_ctype_table
    _strtoul.o(.text) refers to _chval.o(.text) for _chval
    _strtoul.o(.text) refers to errno.o(i.__aeabi_errno_addr) for __aeabi_errno_addr
    depilogue.o(.text) refers to llshl.o(.text) for __aeabi_llsl
    depilogue.o(.text) refers to llushr.o(.text) for __aeabi_llsr


==============================================================================

Removing Unused input sections from the image.

    Removing startup_lpc17xx.o(HEAP), (2048 bytes).
    Removing net_config_http.o(.text), (24 bytes).
    Removing net_config_http.o(.bss), (20 bytes).
    Removing net_config_http.o(.constdata), (60 bytes).
    Removing net_config_http.o(.constdata), (2 bytes).
    Removing net_config_http.o(.constdata), (1 bytes).
    Removing net_config_http.o(.constdata), (6 bytes).
    Removing net_config_http.o(.data), (16 bytes).
    Removing common_func.o(.emb_text), (8 bytes).
    Removing common_func.o(.text), (10 bytes).
    Removing common_func.o(.text), (104 bytes).
    Removing common_func.o(.text), (120 bytes).
    Removing common_func.o(.text), (2192 bytes).
    Removing common_func.o(.text), (68 bytes).
    Removing common_func.o(.text), (316 bytes).
    Removing common_func.o(.text), (44 bytes).
    Removing common_func.o(.text), (252 bytes).
    Removing control.o(.emb_text), (8 bytes).
    Removing control.o(.text), (32 bytes).
    Removing control.o(.text), (16 bytes).
    Removing control.o(.text), (120 bytes).
    Removing control.o(.text), (504 bytes).
    Removing control.o(.text), (96 bytes).
    Removing control.o(.text), (24 bytes).
    Removing control.o(.text), (2 bytes).
    Removing control.o(.bss), (24 bytes).
    Removing control.o(.bss), (64 bytes).
    Removing control.o(.constdata), (4 bytes).
    Removing control.o(.constdata), (4 bytes).
    Removing control.o(.constdata), (4 bytes).
    Removing control.o(.constdata), (4 bytes).
    Removing control.o(.constdata), (4 bytes).
    Removing control.o(.constdata), (4 bytes).
    Removing control.o(.data), (24 bytes).
    Removing control.o(.data), (2 bytes).
    Removing control.o(.data), (1 bytes).
    Removing control.o(.data), (2 bytes).
    Removing control.o(.data), (1 bytes).
    Removing control.o(.data), (2 bytes).
    Removing control.o(.data), (2 bytes).
    Removing control.o(.data), (2 bytes).
    Removing control.o(.data), (1 bytes).
    Removing control.o(.data), (1 bytes).
    Removing control.o(.data), (2 bytes).
    Removing control.o(.data), (1 bytes).
    Removing control.o(.data), (2 bytes).
    Removing control.o(.data), (2 bytes).
    Removing control.o(.data), (2 bytes).
    Removing control.o(.data), (1 bytes).
    Removing control.o(.data), (4 bytes).
    Removing control.o(.data), (2 bytes).
    Removing control.o(.data), (6 bytes).
    Removing control.o(.data), (2 bytes).
    Removing control.o(.data), (2 bytes).
    Removing control.o(.data), (2 bytes).
    Removing control.o(.data), (2 bytes).
    Removing control.o(.data), (1 bytes).
    Removing control.o(.data), (1 bytes).
    Removing control.o(.data), (1 bytes).
    Removing control.o(.data), (1 bytes).
    Removing control.o(.data), (1 bytes).
    Removing control.o(.data), (4 bytes).
    Removing control.o(.data), (4 bytes).
    Removing control.o(.data), (1 bytes).
    Removing control.o(.data), (1 bytes).
    Removing control.o(.data), (2 bytes).
    Removing control.o(.data), (2 bytes).
    Removing control.o(.data), (1 bytes).
    Removing control.o(.data), (2 bytes).
    Removing control.o(.data), (1 bytes).
    Removing control.o(.data), (1 bytes).
    Removing control.o(.data), (1 bytes).
    Removing control.o(.data), (1 bytes).
    Removing control.o(.data), (1 bytes).
    Removing control.o(.data), (2 bytes).
    Removing control.o(.data), (2 bytes).
    Removing control.o(.data), (1 bytes).
    Removing control.o(.data), (1 bytes).
    Removing control.o(.data), (1 bytes).
    Removing control.o(.data), (1 bytes).
    Removing control.o(.data), (2 bytes).
    Removing control.o(.data), (8 bytes).
    Removing control.o(.data), (4 bytes).
    Removing control.o(.data), (4 bytes).
    Removing control.o(.data), (4 bytes).
    Removing control.o(.data), (1 bytes).
    Removing ret.o(.text), (48 bytes).
    Removing ret.o(.text), (44 bytes).
    Removing gran.o(.text), (18 bytes).
    Removing avar_hndl.o(.emb_text), (8 bytes).
    Removing avar_hndl.o(.text), (552 bytes).
    Removing avar_hndl.o(.text), (292 bytes).
    Removing avar_hndl.o(.text), (556 bytes).
    Removing avar_hndl.o(.text), (300 bytes).
    Removing avar_hndl.o(.text), (480 bytes).
    Removing eeprom_map.o(.constdata), (4 bytes).
    Removing eeprom_map.o(.constdata), (4 bytes).
    Removing eeprom_map.o(.constdata), (6 bytes).
    Removing eeprom_map.o(.constdata), (6 bytes).
    Removing eeprom_map.o(.constdata), (6 bytes).
    Removing eeprom_map.o(.constdata), (6 bytes).
    Removing eeprom_map.o(.constdata), (6 bytes).
    Removing eeprom_map.o(.constdata), (6 bytes).
    Removing eeprom_map.o(.constdata), (6 bytes).
    Removing eeprom_map.o(.constdata), (6 bytes).
    Removing eeprom_map.o(.constdata), (8 bytes).
    Removing eeprom_map.o(.constdata), (8 bytes).
    Removing eeprom_map.o(.constdata), (8 bytes).
    Removing eeprom_map.o(.constdata), (8 bytes).
    Removing eeprom_map.o(.constdata), (8 bytes).
    Removing main.o(.emb_text), (8 bytes).
    Removing main.o(.text), (12 bytes).
    Removing main.o(.text), (132 bytes).
    Removing main.o(.text), (476 bytes).
    Removing main.o(.text), (2 bytes).
    Removing main.o(.bss), (20 bytes).
    Removing main.o(.bss), (20 bytes).
    Removing main.o(.bss), (12 bytes).
    Removing main.o(.bss), (12 bytes).
    Removing main.o(.data), (2 bytes).
    Removing main.o(.data), (1 bytes).
    Removing main.o(.data), (1 bytes).
    Removing main.o(.data), (1 bytes).
    Removing main.o(.data), (1 bytes).
    Removing main.o(.data), (1 bytes).
    Removing main.o(.data), (1 bytes).
    Removing main.o(.data), (2 bytes).
    Removing main.o(.data), (2 bytes).
    Removing main.o(.data), (2 bytes).
    Removing main.o(.data), (1 bytes).
    Removing main.o(.data), (1 bytes).
    Removing main.o(.data), (4 bytes).
    Removing main.o(.data), (4 bytes).
    Removing main.o(.data), (4 bytes).
    Removing main.o(.data), (4 bytes).
    Removing main.o(.data), (4 bytes).
    Removing main.o(.data), (4 bytes).
    Removing main.o(.data), (4 bytes).
    Removing main.o(.data), (4 bytes).
    Removing main.o(.data), (4 bytes).
    Removing main.o(.data), (2 bytes).
    Removing main.o(.data), (6 bytes).
    Removing main.o(.data), (2 bytes).
    Removing main.o(.data), (2 bytes).
    Removing main.o(.data), (2 bytes).
    Removing main.o(.data), (2 bytes).
    Removing main.o(.data), (1 bytes).
    Removing main.o(.data), (2 bytes).
    Removing main.o(.data), (2 bytes).
    Removing main.o(.data), (2 bytes).
    Removing main.o(.data), (2 bytes).
    Removing main.o(.data), (4 bytes).
    Removing main.o(.data), (4 bytes).
    Removing main.o(.data), (4 bytes).
    Removing main.o(.data), (4 bytes).
    Removing main.o(.data), (4 bytes).
    Removing main.o(.data), (4 bytes).
    Removing main.o(.data), (4 bytes).
    Removing main.o(.data), (2 bytes).
    Removing main.o(.data), (2 bytes).
    Removing main.o(.data), (2 bytes).
    Removing main.o(.data), (2 bytes).
    Removing main.o(.data), (2 bytes).
    Removing main.o(.data), (2 bytes).
    Removing main.o(.data), (2 bytes).
    Removing main.o(.data), (2 bytes).
    Removing main.o(.data), (2 bytes).
    Removing main.o(.data), (4 bytes).
    Removing main.o(.data), (4 bytes).
    Removing main.o(.data), (8 bytes).
    Removing main.o(.data), (8 bytes).
    Removing main.o(.data), (4 bytes).
    Removing main.o(.data), (4 bytes).
    Removing main.o(.data), (1 bytes).
    Removing main.o(.data), (1 bytes).
    Removing main.o(.data), (2 bytes).
    Removing main.o(.data), (2 bytes).
    Removing main.o(.data), (3 bytes).
    Removing main.o(.data), (2 bytes).
    Removing main.o(.data), (2 bytes).
    Removing main.o(.data), (1 bytes).
    Removing main.o(.data), (2 bytes).
    Removing main.o(.data), (2 bytes).
    Removing main.o(.data), (1 bytes).
    Removing main.o(.data), (6 bytes).
    Removing main.o(.data), (6 bytes).
    Removing main.o(.data), (2 bytes).
    Removing main.o(.data), (2 bytes).
    Removing main.o(.data), (2 bytes).
    Removing main.o(.data), (1 bytes).
    Removing main.o(.data), (2 bytes).
    Removing simbols.o(.emb_text), (8 bytes).
    Removing simbols.o(.constdata), (150 bytes).
    Removing simbols.o(.constdata), (150 bytes).
    Removing simbols.o(.constdata), (30 bytes).
    Removing simbols.o(.constdata), (30 bytes).
    Removing simbols.o(.constdata), (30 bytes).
    Removing simbols.o(.constdata), (30 bytes).
    Removing graphic.o(.emb_text), (8 bytes).
    Removing graphic.o(.text), (1084 bytes).
    Removing graphic.o(.text), (122 bytes).
    Removing graphic.o(.text), (120 bytes).
    Removing graphic.o(.text), (140 bytes).
    Removing graphic.o(.text), (90 bytes).
    Removing graphic.o(.text), (328 bytes).
    Removing graphic.o(.text), (200 bytes).
    Removing system_lpc17xx.o(.emb_text), (8 bytes).
    Removing timer.o(.emb_text), (8 bytes).
    Removing timer.o(.text), (76 bytes).
    Removing timer.o(.text), (20 bytes).
    Removing timer.o(.text), (20 bytes).
    Removing timer.o(.text), (24 bytes).
    Removing timer.o(.text), (60 bytes).
    Removing timer.o(.text), (24 bytes).
    Removing beep.o(.emb_text), (8 bytes).
    Removing ad7705.o(.emb_text), (8 bytes).
    Removing ad7705.o(.text), (88 bytes).
    Removing ad7705.o(.data), (2 bytes).
    Removing ad7705.o(.data), (2 bytes).
    Removing lcd_agm1232_uku207_3.o(.emb_text), (8 bytes).
    Removing lcd_agm1232_uku207_3.o(.text), (44 bytes).
    Removing lcd_agm1232_uku207_3.o(.text), (16 bytes).
    Removing lcd_agm1232_uku207_3.o(.text), (60 bytes).
    Removing lcd_agm1232_uku207_3.o(.text), (196 bytes).
    Removing lcd_agm1232_uku207_3.o(.text), (18 bytes).
    Removing 25lc640.o(.emb_text), (8 bytes).
    Removing 25lc640.o(.text), (124 bytes).
    Removing 25lc640.o(.text), (128 bytes).
    Removing full_can.o(.emb_text), (8 bytes).
    Removing full_can.o(.text), (52 bytes).
    Removing full_can.o(.text), (52 bytes).
    Removing full_can.o(.text), (52 bytes).
    Removing full_can.o(.text), (52 bytes).
    Removing full_can.o(.text), (1000 bytes).
    Removing full_can.o(.text), (104 bytes).
    Removing full_can.o(.text), (40 bytes).
    Removing full_can.o(.bss), (25 bytes).
    Removing full_can.o(.bss), (25 bytes).
    Removing full_can.o(.bss), (40 bytes).
    Removing full_can.o(.bss), (40 bytes).
    Removing full_can.o(.bss), (20 bytes).
    Removing full_can.o(.data), (1 bytes).
    Removing full_can.o(.data), (2 bytes).
    Removing full_can.o(.data), (1 bytes).
    Removing uart0.o(.emb_text), (8 bytes).
    Removing uart0.o(.text), (86 bytes).
    Removing uart0.o(.text), (104 bytes).
    Removing uart0.o(.text), (44 bytes).
    Removing uart0.o(.bss), (50 bytes).
    Removing uart0.o(.bss), (50 bytes).
    Removing uart0.o(.bss), (50 bytes).
    Removing uart0.o(.data), (4 bytes).
    Removing uart0.o(.data), (1 bytes).
    Removing uart0.o(.data), (1 bytes).
    Removing emac_lpc17xx.o(.emb_text), (8 bytes).
    Removing emac_lpc17xx.o(.text), (60 bytes).
    Removing emac_lpc17xx.o(.text), (156 bytes).
    Removing emac_lpc17xx.o(.text), (120 bytes).
    Removing emac_lpc17xx.o(.text), (536 bytes).
    Removing emac_lpc17xx.o(.text), (36 bytes).
    Removing emac_lpc17xx.o(.data), (8 bytes).
    Removing at_tcp.o(i.init_tcp), (24 bytes).
    Removing at_tcp.o(i.tcp_check_send), (56 bytes).
    Removing at_tcp.o(i.tcp_connect), (172 bytes).
    Removing at_tcp.o(i.tcp_get_adr), (24 bytes).
    Removing at_tcp.o(i.tcp_get_free_port), (88 bytes).
    Removing at_tcp.o(i.tcp_get_socket), (72 bytes).
    Removing at_tcp.o(i.tcp_release_socket), (60 bytes).
    Removing at_tcp.o(i.tcp_reset_tout), (48 bytes).
    Removing at_tcp.o(i.tcp_reset_window), (80 bytes).
    Removing at_tcp.o(i.tcp_set_dack), (64 bytes).
    Removing at_udp.o(i.init_udp), (28 bytes).
    Removing at_udp.o(i.udp_close), (44 bytes).
    Removing at_udp.o(i.udp_get_buf), (16 bytes).
    Removing at_udp.o(i.udp_get_socket), (72 bytes).
    Removing at_udp.o(i.udp_mcast_ttl), (44 bytes).
    Removing at_udp.o(i.udp_open), (124 bytes).
    Removing at_udp.o(i.udp_release_socket), (48 bytes).
    Removing at_udp.o(i.udp_send), (268 bytes).
    Removing at_udp.o(.data), (2 bytes).
    Removing at_http.o(i.chk_post_rq), (440 bytes).
    Removing at_http.o(i.cmp_header), (40 bytes).
    Removing at_http.o(i.get_next_field), (40 bytes).
    Removing at_http.o(i.get_next_par), (50 bytes).
    Removing at_http.o(i.hex2byte), (18 bytes).
    Removing at_http.o(i.http_accept_host), (4 bytes).
    Removing at_http.o(i.http_date), (116 bytes).
    Removing at_http.o(i.http_file_type), (80 bytes).
    Removing at_http.o(i.http_get_content_type), (28 bytes).
    Removing at_http.o(i.http_get_info), (80 bytes).
    Removing at_http.o(i.http_get_lang), (28 bytes).
    Removing at_http.o(i.http_get_session), (16 bytes).
    Removing at_http.o(i.http_get_var), (108 bytes).
    Removing at_http.o(i.http_listener), (596 bytes).
    Removing at_http.o(i.http_proc_header), (312 bytes).
    Removing at_http.o(i.http_proc_multipart), (344 bytes).
    Removing at_http.o(i.http_proc_post), (240 bytes).
    Removing at_http.o(i.http_strchr), (26 bytes).
    Removing at_http.o(i.http_to_utc), (168 bytes).
    Removing at_http.o(i.init_http), (96 bytes).
    Removing at_http.o(i.search_delim), (76 bytes).
    Removing at_ethernet.o(i.eth_get_adr), (4 bytes).
    Removing at_ethernet.o(i.init_eth_link), (36 bytes).
    Removing at_mem.o(i.init_mem), (36 bytes).
    Removing at_system.o(.emb_text), (0 bytes).
    Removing at_system.o(i.init_TcpNet), (56 bytes).
    Removing at_arp.o(i.arp_cache_ip), (72 bytes).
    Removing at_arp.o(i.arp_get_adr), (68 bytes).
    Removing at_arp.o(i.init_arp), (40 bytes).
    Removing at_lib.o(i.asc_to_b64), (64 bytes).
    Removing at_lib.o(i.b64_to_asc), (120 bytes).
    Removing at_lib.o(i.bin_to_b64), (68 bytes).
    Removing at_lib.o(i.encode_b64), (70 bytes).
    Removing at_lib.o(i.get_u16), (10 bytes).
    Removing at_lib.o(i.mem_rcopy), (54 bytes).
    Removing at_lib.o(i.str_pos), (26 bytes).
    Removing at_lib.o(i.str_scomp), (26 bytes).
    Removing at_lib.o(i.str_ucomp), (40 bytes).
    Removing at_lib.o(i.str_up_case), (26 bytes).
    Removing at_http_cgi.o(i.cgi_process_var), (2 bytes).
    Removing dadd.o(.text), (336 bytes).
    Removing dmul.o(.text), (226 bytes).
    Removing ddiv.o(.text), (226 bytes).
    Removing dfixul.o(.text), (48 bytes).
    Removing cdrcmple.o(.text), (40 bytes).
    Removing depilogue.o(.text), (198 bytes).

326 unused section(s) (total 22052 bytes) removed from the image.

==============================================================================

Image Symbol Table

    Local Symbols

    Symbol Name                              Value     Ov Type        Size  Object(Section)

    RESET                                    0x00000000   Section      204  startup_lpc17xx.o(RESET)
    ../../../cmprslib/zerorunl.c             0x00000000   Number         0  __dczerorl.o ABSOLUTE
    ../../microlib/ctype/ctype.c             0x00000000   Number         0  isalnum_o.o ABSOLUTE
    ../../microlib/ctype/ctype.c             0x00000000   Number         0  iscntrl_o.o ABSOLUTE
    ../../microlib/ctype/ctype.c             0x00000000   Number         0  isblank_o.o ABSOLUTE
    ../../microlib/ctype/ctype.c             0x00000000   Number         0  isalpha_o.o ABSOLUTE
    ../../microlib/ctype/ctype.c             0x00000000   Number         0  ispunct_o.o ABSOLUTE
    ../../microlib/ctype/ctype.c             0x00000000   Number         0  ctype_o.o ABSOLUTE
    ../../microlib/ctype/ctype.c             0x00000000   Number         0  isgraph_o.o ABSOLUTE
    ../../microlib/ctype/ctype.c             0x00000000   Number         0  isdigit_o.o ABSOLUTE
    ../../microlib/ctype/ctype.c             0x00000000   Number         0  islower_o.o ABSOLUTE
    ../../microlib/ctype/ctype.c             0x00000000   Number         0  isprint_o.o ABSOLUTE
    ../../microlib/ctype/ctype.c             0x00000000   Number         0  isspace_o.o ABSOLUTE
    ../../microlib/ctype/ctype.c             0x00000000   Number         0  isupper_o.o ABSOLUTE
    ../../microlib/ctype/ctype.c             0x00000000   Number         0  isxdigit_o.o ABSOLUTE
    ../../microlib/division.c                0x00000000   Number         0  uidiv.o ABSOLUTE
    ../../microlib/division.c                0x00000000   Number         0  uldiv.o ABSOLUTE
    ../../microlib/errno.c                   0x00000000   Number         0  errno.o ABSOLUTE
    ../../microlib/fpadd.c                   0x00000000   Number         0  dadd.o ABSOLUTE
    ../../microlib/fpdiv.c                   0x00000000   Number         0  ddiv.o ABSOLUTE
    ../../microlib/fpepilogue.c              0x00000000   Number         0  depilogue.o ABSOLUTE
    ../../microlib/fpfix.c                   0x00000000   Number         0  dfixul.o ABSOLUTE
    ../../microlib/fpmul.c                   0x00000000   Number         0  dmul.o ABSOLUTE
    ../../microlib/init/entry.s              0x00000000   Number         0  entry.o ABSOLUTE
    ../../microlib/init/entry.s              0x00000000   Number         0  entry7.o ABSOLUTE
    ../../microlib/init/entry.s              0x00000000   Number         0  entry5.o ABSOLUTE
    ../../microlib/init/entry.s              0x00000000   Number         0  entry2.o ABSOLUTE
    ../../microlib/longlong.c                0x00000000   Number         0  llushr.o ABSOLUTE
    ../../microlib/longlong.c                0x00000000   Number         0  llshl.o ABSOLUTE
    ../../microlib/longlong.c                0x00000000   Number         0  llsshr.o ABSOLUTE
    ../../microlib/printf/printf.c           0x00000000   Number         0  printf2.o ABSOLUTE
    ../../microlib/printf/printf.c           0x00000000   Number         0  printf3.o ABSOLUTE
    ../../microlib/printf/printf.c           0x00000000   Number         0  printf4.o ABSOLUTE
    ../../microlib/printf/printf.c           0x00000000   Number         0  printf5.o ABSOLUTE
    ../../microlib/printf/printf.c           0x00000000   Number         0  printf7.o ABSOLUTE
    ../../microlib/printf/printf.c           0x00000000   Number         0  printf6.o ABSOLUTE
    ../../microlib/printf/printf.c           0x00000000   Number         0  printfa.o ABSOLUTE
    ../../microlib/printf/printf.c           0x00000000   Number         0  printfb.o ABSOLUTE
    ../../microlib/printf/printf.c           0x00000000   Number         0  printf8.o ABSOLUTE
    ../../microlib/printf/printf.c           0x00000000   Number         0  printf0.o ABSOLUTE
    ../../microlib/printf/printf.c           0x00000000   Number         0  printf1.o ABSOLUTE
    ../../microlib/printf/stubs.s            0x00000000   Number         0  stubs.o ABSOLUTE
    ../../microlib/stdio/fputc.c             0x00000000   Number         0  fputc.o ABSOLUTE
    ../../microlib/stdio/streams.c           0x00000000   Number         0  stdout.o ABSOLUTE
    ../../microlib/string/strcmp.c           0x00000000   Number         0  strcmp.o ABSOLUTE
    ../../microlib/string/strlen.c           0x00000000   Number         0  strlen.o ABSOLUTE
    ../../microlib/stubs.s                   0x00000000   Number         0  iusefp.o ABSOLUTE
    ../../microlib/stubs.s                   0x00000000   Number         0  iusesemip.o ABSOLUTE
    ../../scanf.c                            0x00000000   Number         0  strtol.o ABSOLUTE
    ../../scanf.c                            0x00000000   Number         0  atoi.o ABSOLUTE
    ../../scanf.c                            0x00000000   Number         0  _strtoul.o ABSOLUTE
    ../../scanf.c                            0x00000000   Number         0  _chval.o ABSOLUTE
    25lc640.c                                0x00000000   Number         0  25lc640.o ABSOLUTE
    25lc640.c                                0x00000000   Number         0  25lc640.o ABSOLUTE
    C:\Keil\ARM\Boards\Keil\MCB1700\RL\TCPnet\Library\EMAC_LPC17xx.c 0x00000000   Number         0  emac_lpc17xx.o ABSOLUTE
    C:\\Keil\\ARM\\Boards\\Keil\\MCB1700\\RL\\TCPnet\\Library\\EMAC_LPC17xx.c 0x00000000   Number         0  emac_lpc17xx.o ABSOLUTE
    Net_Config_HTTP.c                        0x00000000   Number         0  net_config_http.o ABSOLUTE
    SRC\HTTP_err.c                           0x00000000   Number         0  http_err.o ABSOLUTE
    SRC\\at_System.c                         0x00000000   Number         0  at_system.o ABSOLUTE
    SRC\at_ARP.c                             0x00000000   Number         0  at_arp.o ABSOLUTE
    SRC\at_Ethernet.c                        0x00000000   Number         0  at_ethernet.o ABSOLUTE
    SRC\at_HTTP.c                            0x00000000   Number         0  at_http.o ABSOLUTE
    SRC\at_HTTP_CGI.c                        0x00000000   Number         0  at_http_cgi.o ABSOLUTE
    SRC\at_HTTP_uif.c                        0x00000000   Number         0  at_http_uif.o ABSOLUTE
    SRC\at_ICMP.c                            0x00000000   Number         0  at_icmp.o ABSOLUTE
    SRC\at_IP.c                              0x00000000   Number         0  at_ip.o ABSOLUTE
    SRC\at_Lib.c                             0x00000000   Number         0  at_lib.o ABSOLUTE
    SRC\at_Mem.c                             0x00000000   Number         0  at_mem.o ABSOLUTE
    SRC\at_System.c                          0x00000000   Number         0  at_system.o ABSOLUTE
    SRC\at_TCP.c                             0x00000000   Number         0  at_tcp.o ABSOLUTE
    SRC\at_UDP.c                             0x00000000   Number         0  at_udp.o ABSOLUTE
    SRC\at_WEB.c                             0x00000000   Number         0  at_web.o ABSOLUTE
    Timer.c                                  0x00000000   Number         0  timer.o ABSOLUTE
    Timer.c                                  0x00000000   Number         0  timer.o ABSOLUTE
    ad7705.c                                 0x00000000   Number         0  ad7705.o ABSOLUTE
    ad7705.c                                 0x00000000   Number         0  ad7705.o ABSOLUTE
    avar_hndl.c                              0x00000000   Number         0  avar_hndl.o ABSOLUTE
    avar_hndl.c                              0x00000000   Number         0  avar_hndl.o ABSOLUTE
    beep.c                                   0x00000000   Number         0  beep.o ABSOLUTE
    beep.c                                   0x00000000   Number         0  beep.o ABSOLUTE
    cdrcmple.s                               0x00000000   Number         0  cdrcmple.o ABSOLUTE
    common_func.c                            0x00000000   Number         0  common_func.o ABSOLUTE
    common_func.c                            0x00000000   Number         0  common_func.o ABSOLUTE
    control.c                                0x00000000   Number         0  control.o ABSOLUTE
    control.c                                0x00000000   Number         0  control.o ABSOLUTE
    dc.s                                     0x00000000   Number         0  dc.o ABSOLUTE
    eeprom_map.c                             0x00000000   Number         0  eeprom_map.o ABSOLUTE
    full_can.c                               0x00000000   Number         0  full_can.o ABSOLUTE
    full_can.c                               0x00000000   Number         0  full_can.o ABSOLUTE
    gran.c                                   0x00000000   Number         0  gran.o ABSOLUTE
    graphic.c                                0x00000000   Number         0  graphic.o ABSOLUTE
    graphic.c                                0x00000000   Number         0  graphic.o ABSOLUTE
    handlers.s                               0x00000000   Number         0  handlers.o ABSOLUTE
    init.s                                   0x00000000   Number         0  init.o ABSOLUTE
    lcd_AGM1232_uku207_3.c                   0x00000000   Number         0  lcd_agm1232_uku207_3.o ABSOLUTE
    lcd_AGM1232_uku207_3.c                   0x00000000   Number         0  lcd_agm1232_uku207_3.o ABSOLUTE
    main.c                                   0x00000000   Number         0  main.o ABSOLUTE
    main.c                                   0x00000000   Number         0  main.o ABSOLUTE
    memo.c                                   0x00000000   Number         0  memo.o ABSOLUTE
    mess.c                                   0x00000000   Number         0  mess.o ABSOLUTE
    ret.c                                    0x00000000   Number         0  ret.o ABSOLUTE
    simbols.c                                0x00000000   Number         0  simbols.o ABSOLUTE
    simbols.c                                0x00000000   Number         0  simbols.o ABSOLUTE
    startup_LPC17xx.s                        0x00000000   Number         0  startup_lpc17xx.o ABSOLUTE
    system_LPC17xx.c                         0x00000000   Number         0  system_lpc17xx.o ABSOLUTE
    system_LPC17xx.c                         0x00000000   Number         0  system_lpc17xx.o ABSOLUTE
    uart0.c                                  0x00000000   Number         0  uart0.o ABSOLUTE
    uart0.c                                  0x00000000   Number         0  uart0.o ABSOLUTE
    .ARM.Collect$$$$00000000                 0x000000cc   Section        0  entry.o(.ARM.Collect$$$$00000000)
    .ARM.Collect$$$$00000001                 0x000000cc   Section        4  entry2.o(.ARM.Collect$$$$00000001)
    .ARM.Collect$$$$00000004                 0x000000d0   Section        4  entry5.o(.ARM.Collect$$$$00000004)
    .ARM.Collect$$$$00000007                 0x000000d4   Section        8  entry7.o(.ARM.Collect$$$$00000007)
    .ARM.Collect$$$$00002712                 0x000000dc   Section        4  entry2.o(.ARM.Collect$$$$00002712)
    __lit__00000000                          0x000000dc   Data           4  entry2.o(.ARM.Collect$$$$00002712)
    .text                                    0x000000e0   Section       28  startup_lpc17xx.o(.text)
    .text                                    0x000000fc   Section        0  net_config_http.o(.text)
    .text                                    0x00000128   Section        0  mess.o(.text)
    .text                                    0x00000210   Section        0  ret.o(.text)
    .text                                    0x00000248   Section        0  gran.o(.text)
    .text                                    0x000002a0   Section        0  timer.o(.text)
    .text                                    0x000002ec   Section        0  strlen.o(.text)
    .ARM.__at_0x02FC                         0x000002fc   Section        4  startup_lpc17xx.o(.ARM.__at_0x02FC)
    .text                                    0x00000300   Section        0  common_func.o(.text)
    .text                                    0x00000910   Section        0  control.o(.text)
    .text                                    0x00000fb8   Section        0  avar_hndl.o(.text)
    .text                                    0x000014c0   Section        0  main.o(.text)
    .text                                    0x00007770   Section        0  memo.o(.text)
    .text                                    0x000080ac   Section        0  system_lpc17xx.o(.text)
    .text                                    0x00008200   Section        0  beep.o(.text)
    .text                                    0x00008358   Section        0  ad7705.o(.text)
    .text                                    0x00008564   Section        0  lcd_agm1232_uku207_3.o(.text)
    .text                                    0x00008a00   Section        0  25lc640.o(.text)
    .text                                    0x00008e48   Section        0  full_can.o(.text)
    NVIC_EnableIRQ                           0x0000998d   Thumb Code    24  full_can.o(.text)
    .text                                    0x000099c8   Section        0  uart0.o(.text)
    NVIC_EnableIRQ                           0x00009ed7   Thumb Code    24  uart0.o(.text)
    .text                                    0x00009ef8   Section        0  emac_lpc17xx.o(.text)
    .text                                    0x00009fdc   Section        0  uidiv.o(.text)
    .text                                    0x0000a008   Section       36  init.o(.text)
    .text                                    0x0000a02c   Section        0  __dczerorl.o(.text)
    i.CalcChksum                             0x0000a066   Section        0  at_lib.o(i.CalcChksum)
    i.CalcChksumBuf                          0x0000a07c   Section        0  at_lib.o(i.CalcChksumBuf)
    i.CalcChksumVal                          0x0000a0a4   Section        0  at_lib.o(i.CalcChksumVal)
    i.SwapB                                  0x0000a0ae   Section        0  at_lib.o(i.SwapB)
    i.__0sprintf$6                           0x0000a0b8   Section        0  printf6.o(i.__0sprintf$6)
    i.__scatterload_copy                     0x0000a0e0   Section       14  handlers.o(i.__scatterload_copy)
    i.__scatterload_null                     0x0000a0ee   Section        2  handlers.o(i.__scatterload_null)
    i.__scatterload_zeroinit                 0x0000a0f0   Section       14  handlers.o(i.__scatterload_zeroinit)
    i._printf_core                           0x0000a100   Section        0  printf6.o(i._printf_core)
    _printf_core                             0x0000a101   Thumb Code   818  printf6.o(i._printf_core)
    i._printf_post_padding                   0x0000a438   Section        0  printf6.o(i._printf_post_padding)
    _printf_post_padding                     0x0000a439   Thumb Code    38  printf6.o(i._printf_post_padding)
    i._printf_pre_padding                    0x0000a45e   Section        0  printf6.o(i._printf_pre_padding)
    _printf_pre_padding                      0x0000a45f   Thumb Code    46  printf6.o(i._printf_pre_padding)
    i._sputc                                 0x0000a48c   Section        0  printf6.o(i._sputc)
    _sputc                                   0x0000a48d   Thumb Code    10  printf6.o(i._sputc)
    i.alloc_mem                              0x0000a498   Section        0  at_mem.o(i.alloc_mem)
    i.arp_cache_add                          0x0000a53c   Section        0  at_arp.o(i.arp_cache_add)
    i.arp_cache_alloc                        0x0000a600   Section        0  at_arp.o(i.arp_cache_alloc)
    arp_cache_alloc                          0x0000a601   Thumb Code    96  at_arp.o(i.arp_cache_alloc)
    i.arp_cache_find                         0x0000a66c   Section        0  at_arp.o(i.arp_cache_find)
    i.arp_cache_update                       0x0000a784   Section        0  at_arp.o(i.arp_cache_update)
    i.arp_get_response                       0x0000a87c   Section        0  at_arp.o(i.arp_get_response)
    arp_get_response                         0x0000a87d   Thumb Code    86  at_arp.o(i.arp_get_response)
    i.arp_send_reply                         0x0000a8e4   Section        0  at_arp.o(i.arp_send_reply)
    arp_send_reply                           0x0000a8e5   Thumb Code   148  at_arp.o(i.arp_send_reply)
    i.arp_send_req                           0x0000a980   Section        0  at_arp.o(i.arp_send_req)
    i.cgi_func                               0x0000aa2c   Section        0  at_http_cgi.o(i.cgi_func)
    i.cgi_process_data                       0x0000aa30   Section        0  at_http_cgi.o(i.cgi_process_data)
    i.cgx_content_type                       0x0000aa32   Section        0  at_http.o(i.cgx_content_type)
    i.eth_chk_adr                            0x0000aa38   Section        0  at_ethernet.o(i.eth_chk_adr)
    i.eth_send_frame                         0x0000aa48   Section        0  at_ethernet.o(i.eth_send_frame)
    i.free_mem                               0x0000aae0   Section        0  at_mem.o(i.free_mem)
    i.get_crc                                0x0000ab48   Section        0  at_lib.o(i.get_crc)
    i.get_u32                                0x0000ab70   Section        0  at_lib.o(i.get_u32)
    i.http_add_header                        0x0000ab88   Section        0  at_http.o(i.http_add_header)
    http_add_header                          0x0000ab89   Thumb Code   180  at_http.o(i.http_add_header)
    i.http_error_msg                         0x0000ad94   Section        0  at_http.o(i.http_error_msg)
    http_error_msg                           0x0000ad95   Thumb Code   186  at_http.o(i.http_error_msg)
    i.http_fclose                            0x0000af50   Section        0  at_http_uif.o(i.http_fclose)
    i.http_fgets                             0x0000af52   Section        0  at_http_uif.o(i.http_fgets)
    i.http_finfo                             0x0000af56   Section        0  at_http_uif.o(i.http_finfo)
    i.http_fopen                             0x0000af5a   Section        0  at_http_uif.o(i.http_fopen)
    i.http_fread                             0x0000af5e   Section        0  at_http_uif.o(i.http_fread)
    i.http_kill_session                      0x0000af62   Section        0  at_http.o(i.http_kill_session)
    http_kill_session                        0x0000af63   Thumb Code    94  at_http.o(i.http_kill_session)
    i.http_open_file                         0x0000afc0   Section        0  at_http.o(i.http_open_file)
    http_open_file                           0x0000afc1   Thumb Code   278  at_http.o(i.http_open_file)
    i.http_strcpy                            0x0000b0f8   Section        0  at_http.o(i.http_strcpy)
    http_strcpy                              0x0000b0f9   Thumb Code    30  at_http.o(i.http_strcpy)
    i.ip_chk_frame                           0x0000b118   Section        0  at_ip.o(i.ip_chk_frame)
    i.ip_get_chksum                          0x0000b1dc   Section        0  at_ip.o(i.ip_get_chksum)
    ip_get_chksum                            0x0000b1dd   Thumb Code    10  at_ip.o(i.ip_get_chksum)
    i.ip_get_locadr                          0x0000b1e8   Section        0  at_ip.o(i.ip_get_locadr)
    i.ip_send_frame                          0x0000b280   Section        0  at_ip.o(i.ip_send_frame)
    i.is_subnet                              0x0000b310   Section        0  at_lib.o(i.is_subnet)
    i.is_subnet_bcast                        0x0000b334   Section        0  at_arp.o(i.is_subnet_bcast)
    i.main_TcpNet                            0x0000b360   Section        0  at_system.o(i.main_TcpNet)
    i.mem_comp                               0x0000b39c   Section        0  at_lib.o(i.mem_comp)
    i.mem_copy                               0x0000b3bc   Section        0  at_lib.o(i.mem_copy)
    i.mem_set                                0x0000b3d8   Section        0  at_lib.o(i.mem_set)
    i.mem_test                               0x0000b3e8   Section        0  at_lib.o(i.mem_test)
    i.poll_ethernet                          0x0000b3fe   Section        0  at_ethernet.o(i.poll_ethernet)
    i.process_arp                            0x0000b400   Section        0  at_arp.o(i.process_arp)
    i.process_hl_igmp                        0x0000b498   Section        0  at_ethernet.o(i.process_hl_igmp)
    i.process_icmp                           0x0000b49a   Section        0  at_icmp.o(i.process_icmp)
    i.process_tcp                            0x0000b510   Section        0  at_tcp.o(i.process_tcp)
    i.process_udp                            0x0000b97c   Section        0  at_udp.o(i.process_udp)
    i.put_in_queue                           0x0000ba40   Section        0  at_ethernet.o(i.put_in_queue)
    i.read_script_line                       0x0000ba6c   Section        0  at_http.o(i.read_script_line)
    read_script_line                         0x0000ba6d   Thumb Code   158  at_http.o(i.read_script_line)
    i.resize_mem                             0x0000bb0c   Section        0  at_mem.o(i.resize_mem)
    i.run_eth_link                           0x0000bb40   Section        0  at_ethernet.o(i.run_eth_link)
    i.run_http_server                        0x0000bbf0   Section        0  at_http.o(i.run_http_server)
    i.set_u32                                0x0000bee8   Section        0  at_lib.o(i.set_u32)
    i.str_copy                               0x0000bef8   Section        0  at_lib.o(i.str_copy)
    i.str_crc                                0x0000bf0e   Section        0  at_lib.o(i.str_crc)
    i.tcp_abort                              0x0000bf28   Section        0  at_tcp.o(i.tcp_abort)
    i.tcp_close                              0x0000bf80   Section        0  at_tcp.o(i.tcp_close)
    i.tcp_get_buf                            0x0000c004   Section        0  at_tcp.o(i.tcp_get_buf)
    i.tcp_get_state                          0x0000c014   Section        0  at_tcp.o(i.tcp_get_state)
    i.tcp_init_seq                           0x0000c040   Section        0  at_tcp.o(i.tcp_init_seq)
    tcp_init_seq                             0x0000c041   Thumb Code    14  at_tcp.o(i.tcp_init_seq)
    i.tcp_listen                             0x0000c054   Section        0  at_tcp.o(i.tcp_listen)
    i.tcp_map_socket                         0x0000c0d0   Section        0  at_tcp.o(i.tcp_map_socket)
    tcp_map_socket                           0x0000c0d1   Thumb Code   150  at_tcp.o(i.tcp_map_socket)
    i.tcp_max_dsize                          0x0000c170   Section        0  at_tcp.o(i.tcp_max_dsize)
    i.tcp_poll_sockets                       0x0000c194   Section        0  at_tcp.o(i.tcp_poll_sockets)
    i.tcp_process_opt                        0x0000c388   Section        0  at_tcp.o(i.tcp_process_opt)
    tcp_process_opt                          0x0000c389   Thumb Code   106  at_tcp.o(i.tcp_process_opt)
    i.tcp_send                               0x0000c3f8   Section        0  at_tcp.o(i.tcp_send)
    i.tcp_send_ctrl                          0x0000c4fc   Section        0  at_tcp.o(i.tcp_send_ctrl)
    tcp_send_ctrl                            0x0000c4fd   Thumb Code    34  at_tcp.o(i.tcp_send_ctrl)
    i.tcp_send_frame                         0x0000c520   Section        0  at_tcp.o(i.tcp_send_frame)
    tcp_send_frame                           0x0000c521   Thumb Code   236  at_tcp.o(i.tcp_send_frame)
    i.tcp_send_reset                         0x0000c614   Section        0  at_tcp.o(i.tcp_send_reset)
    tcp_send_reset                           0x0000c615   Thumb Code   120  at_tcp.o(i.tcp_send_reset)
    i.tcp_set_retransmit                     0x0000c694   Section        0  at_tcp.o(i.tcp_set_retransmit)
    tcp_set_retransmit                       0x0000c695   Thumb Code    18  at_tcp.o(i.tcp_set_retransmit)
    i.tcp_transit                            0x0000c6a8   Section        0  at_tcp.o(i.tcp_transit)
    tcp_transit                              0x0000c6a9   Thumb Code    96  at_tcp.o(i.tcp_transit)
    i.timer_tick                             0x0000c71c   Section        0  at_system.o(i.timer_tick)
    i.utc_to_http                            0x0000c728   Section        0  at_http.o(i.utc_to_http)
    utc_to_http                              0x0000c729   Thumb Code   178  at_http.o(i.utc_to_http)
    .constdata                               0x0000c808   Section        1  net_config_http.o(.constdata)
    .constdata                               0x0000c80c   Section        4  net_config_http.o(.constdata)
    .constdata                               0x0000c810   Section        2  net_config_http.o(.constdata)
    .constdata                               0x0000c812   Section        2  net_config_http.o(.constdata)
    .constdata                               0x0000c814   Section        2  net_config_http.o(.constdata)
    .constdata                               0x0000c816   Section        1  net_config_http.o(.constdata)
    .constdata                               0x0000c817   Section        1  net_config_http.o(.constdata)
    .constdata                               0x0000c818   Section        1  net_config_http.o(.constdata)
    .constdata                               0x0000c819   Section        1  net_config_http.o(.constdata)
    .constdata                               0x0000c81a   Section        1  net_config_http.o(.constdata)
    .constdata                               0x0000c81c   Section        2  net_config_http.o(.constdata)
    .constdata                               0x0000c81e   Section        2  net_config_http.o(.constdata)
    .constdata                               0x0000c820   Section        2  net_config_http.o(.constdata)
    .constdata                               0x0000c822   Section        2  net_config_http.o(.constdata)
    .constdata                               0x0000c824   Section        1  net_config_http.o(.constdata)
    .constdata                               0x0000c825   Section        1  net_config_http.o(.constdata)
    .constdata                               0x0000c826   Section        2  net_config_http.o(.constdata)
    .constdata                               0x0000c828   Section       20  net_config_http.o(.constdata)
    .constdata                               0x0000c83c   Section        4  eeprom_map.o(.constdata)
    .constdata                               0x0000c840   Section        4  eeprom_map.o(.constdata)
    .constdata                               0x0000c844   Section        4  eeprom_map.o(.constdata)
    .constdata                               0x0000c848   Section        4  eeprom_map.o(.constdata)
    .constdata                               0x0000c84c   Section        4  eeprom_map.o(.constdata)
    .constdata                               0x0000c850   Section        4  eeprom_map.o(.constdata)
    .constdata                               0x0000c854   Section        4  eeprom_map.o(.constdata)
    .constdata                               0x0000c858   Section        4  eeprom_map.o(.constdata)
    .constdata                               0x0000c85c   Section        4  eeprom_map.o(.constdata)
    .constdata                               0x0000c860   Section     1651  main.o(.constdata)
    .constdata                               0x0000ced3   Section       17  main.o(.constdata)
    .constdata                               0x0000cee4   Section      512  full_can.o(.constdata)
    .constdata                               0x0000d0e4   Section      202  at_http.o(.constdata)
    DYear                                    0x0000d0e4   Data           6  at_http.o(.constdata)
    Month                                    0x0000d0ea   Data          48  at_http.o(.constdata)
    WkDay                                    0x0000d11a   Data          28  at_http.o(.constdata)
    DMonth                                   0x0000d136   Data          24  at_http.o(.constdata)
    ftype                                    0x0000d14e   Data          96  at_http.o(.constdata)
    .constdata                               0x0000d1ae   Section        6  at_ethernet.o(.constdata)
    .constdata                               0x0000d1b4   Section        4  at_ip.o(.constdata)
    .constdata                               0x0000d1b8   Section       94  http_err.o(.constdata)
    .constdata                               0x0000d216   Section       91  http_err.o(.constdata)
    .constdata                               0x0000d271   Section       83  http_err.o(.constdata)
    .constdata                               0x0000d2c4   Section       59  http_err.o(.constdata)
    .constdata                               0x0000d2ff   Section      137  http_err.o(.constdata)
    .constdata                               0x0000d388   Section        4  at_web.o(.constdata)
    .constdata                               0x0000d38c   Section      395  at_web.o(.constdata)
    Web                                      0x0000d38c   Data         395  at_web.o(.constdata)
    .constdata                               0x0000d518   Section       16  at_web.o(.constdata)
    .data                                    0x10000000   Section        4  control.o(.data)
    .data                                    0x10000004   Section        4  control.o(.data)
    .data                                    0x10000008   Section        1  control.o(.data)
    .data                                    0x10000009   Section        1  control.o(.data)
    .data                                    0x1000000a   Section        2  control.o(.data)
    .data                                    0x1000000c   Section        2  control.o(.data)
    .data                                    0x1000000e   Section        2  control.o(.data)
    .data                                    0x10000010   Section        2  control.o(.data)
    .data                                    0x10000012   Section        2  control.o(.data)
    .data                                    0x10000014   Section        8  mess.o(.data)
    .data                                    0x1000001c   Section       20  ret.o(.data)
    .data                                    0x10000030   Section        1  main.o(.data)
    .data                                    0x10000032   Section        6  main.o(.data)
    .data                                    0x10000038   Section        2  main.o(.data)
    .data                                    0x1000003a   Section        2  main.o(.data)
    .data                                    0x1000003c   Section        2  main.o(.data)
    .data                                    0x1000003e   Section        2  main.o(.data)
    .data                                    0x10000040   Section        2  main.o(.data)
    .data                                    0x10000042   Section        2  main.o(.data)
    .data                                    0x10000044   Section        4  main.o(.data)
    .data                                    0x10000048   Section        2  main.o(.data)
    .data                                    0x1000004a   Section        2  main.o(.data)
    .data                                    0x1000004c   Section        2  main.o(.data)
    .data                                    0x10000050   Section        4  main.o(.data)
    .data                                    0x10000054   Section        2  main.o(.data)
    .data                                    0x10000056   Section        2  main.o(.data)
    .data                                    0x10000058   Section        6  main.o(.data)
    .data                                    0x1000005e   Section        6  main.o(.data)
    .data                                    0x10000064   Section        6  main.o(.data)
    .data                                    0x1000006a   Section        6  main.o(.data)
    .data                                    0x10000070   Section        2  main.o(.data)
    .data                                    0x10000072   Section        2  main.o(.data)
    .data                                    0x10000074   Section        2  main.o(.data)
    .data                                    0x10000076   Section        2  main.o(.data)
    .data                                    0x10000078   Section        2  main.o(.data)
    .data                                    0x1000007a   Section        2  main.o(.data)
    .data                                    0x1000007c   Section        2  main.o(.data)
    .data                                    0x1000007e   Section        2  main.o(.data)
    .data                                    0x10000080   Section        2  main.o(.data)
    .data                                    0x10000082   Section        2  main.o(.data)
    .data                                    0x10000084   Section        2  main.o(.data)
    .data                                    0x10000086   Section        2  main.o(.data)
    .data                                    0x10000088   Section        2  main.o(.data)
    .data                                    0x1000008a   Section        2  main.o(.data)
    .data                                    0x1000008c   Section        2  main.o(.data)
    .data                                    0x1000008e   Section        2  main.o(.data)
    .data                                    0x10000090   Section        2  main.o(.data)
    .data                                    0x10000092   Section        2  main.o(.data)
    .data                                    0x10000094   Section        1  main.o(.data)
    .data                                    0x10000096   Section        2  main.o(.data)
    .data                                    0x10000098   Section        2  main.o(.data)
    .data                                    0x1000009c   Section        4  system_lpc17xx.o(.data)
    .data                                    0x100000a0   Section        8  timer.o(.data)
    .data                                    0x100000a8   Section       12  beep.o(.data)
    bcnt                                     0x100000a8   Data           1  beep.o(.data)
    .data                                    0x100000b4   Section       28  full_can.o(.data)
    .data                                    0x100000d0   Section       20  uart0.o(.data)
    .data                                    0x100000e4   Section        4  at_mem.o(.data)
    Mem_Load                                 0x100000e4   Data           4  at_mem.o(.data)
    .data                                    0x100000e8   Section        8  at_system.o(.data)
    tick_fl                                  0x100000ea   Data           1  at_system.o(.data)
    sec_cnt                                  0x100000ee   Data           2  at_system.o(.data)
    .data                                    0x100000f0   Section        2  at_arp.o(.data)
    next_entry                               0x100000f0   Data           2  at_arp.o(.data)
    .bss                                     0x100000f4   Section    16384  net_config_http.o(.bss)
    .bss                                     0x100040f4   Section      140  net_config_http.o(.bss)
    .bss                                     0x10004180   Section      352  net_config_http.o(.bss)
    .bss                                     0x100042e0   Section      112  mess.o(.bss)
    .bss                                     0x10004350   Section       30  main.o(.bss)
    .bss                                     0x1000436e   Section       64  ad7705.o(.bss)
    .bss                                     0x100043b0   Section       60  at_system.o(.bss)
    STACK                                    0x100043f0   Section     2048  startup_lpc17xx.o(STACK)
    .data                                    0x2007c000   Section        6  net_config_http.o(.data)
    .data                                    0x2007c006   Section       48  control.o(.data)
    .data                                    0x2007c036   Section        1  control.o(.data)
    .data                                    0x2007c038   Section        4  control.o(.data)
    .data                                    0x2007c03c   Section        1  control.o(.data)
    .data                                    0x2007c03d   Section        1  control.o(.data)
    .data                                    0x2007c03e   Section        2  control.o(.data)
    .data                                    0x2007c040   Section        2  control.o(.data)
    .data                                    0x2007c042   Section        2  control.o(.data)
    .data                                    0x2007c044   Section       26  avar_hndl.o(.data)
    .data                                    0x2007c060   Section      620  main.o(.data)
    sub_cnt                                  0x2007c067   Data           1  main.o(.data)
    sub_cnt1                                 0x2007c068   Data           1  main.o(.data)
    phase_cnt                                0x2007c069   Data           1  main.o(.data)
    .data                                    0x2007c2cc   Section        2  main.o(.data)
    .data                                    0x2007c2ce   Section        2  main.o(.data)
    .data                                    0x2007c2d0   Section        2  main.o(.data)
    .data                                    0x2007c2d2   Section        2  main.o(.data)
    .data                                    0x2007c2d4   Section        2  main.o(.data)
    .data                                    0x2007c2d6   Section        2  main.o(.data)
    .data                                    0x2007c2d8   Section        4  main.o(.data)
    .data                                    0x2007c2dc   Section        2  main.o(.data)
    .data                                    0x2007c2de   Section        2  main.o(.data)
    .data                                    0x2007c2e0   Section        2  main.o(.data)
    .data                                    0x2007c2e4   Section        4  main.o(.data)
    .data                                    0x2007c2e8   Section        4  main.o(.data)
    .data                                    0x2007c2ec   Section        2  main.o(.data)
    .data                                    0x2007c2ee   Section        2  main.o(.data)
    .data                                    0x2007c2f0   Section        6  main.o(.data)
    .data                                    0x2007c2f6   Section        6  main.o(.data)
    .data                                    0x2007c2fc   Section        6  main.o(.data)
    .data                                    0x2007c302   Section        6  main.o(.data)
    .data                                    0x2007c308   Section        8  main.o(.data)
    .data                                    0x2007c310   Section        2  main.o(.data)
    .data                                    0x2007c312   Section        2  main.o(.data)
    .data                                    0x2007c314   Section        2  main.o(.data)
    .data                                    0x2007c316   Section        2  main.o(.data)
    .data                                    0x2007c318   Section        2  main.o(.data)
    .data                                    0x2007c31a   Section        2  main.o(.data)
    .data                                    0x2007c31c   Section        2  main.o(.data)
    .data                                    0x2007c31e   Section        2  main.o(.data)
    .data                                    0x2007c320   Section        2  main.o(.data)
    .data                                    0x2007c322   Section        2  main.o(.data)
    .data                                    0x2007c324   Section        2  main.o(.data)
    .data                                    0x2007c326   Section        2  main.o(.data)
    .data                                    0x2007c328   Section        2  main.o(.data)
    .data                                    0x2007c32a   Section        2  main.o(.data)
    .data                                    0x2007c32c   Section        2  main.o(.data)
    .data                                    0x2007c32e   Section        2  main.o(.data)
    .data                                    0x2007c330   Section        2  main.o(.data)
    .data                                    0x2007c332   Section        2  main.o(.data)
    .data                                    0x2007c334   Section        5  main.o(.data)
    .data                                    0x2007c339   Section        1  main.o(.data)
    .data                                    0x2007c33a   Section        2  main.o(.data)
    .data                                    0x2007c33c   Section        2  main.o(.data)
    .data                                    0x2007c33e   Section        2  main.o(.data)
    .data                                    0x2007c340   Section       14  ad7705.o(.data)
    .data                                    0x2007c34e   Section        4  at_tcp.o(.data)
    socket                                   0x2007c34e   Data           1  at_tcp.o(.data)
    port                                     0x2007c350   Data           2  at_tcp.o(.data)
    .data                                    0x2007c354   Section       12  at_http.o(.data)
    session                                  0x2007c354   Data           1  at_http.o(.data)
    cgi                                      0x2007c358   Data           8  at_http.o(.data)
    .data                                    0x2007c360   Section        8  at_ethernet.o(.data)
    q_head                                   0x2007c360   Data           4  at_ethernet.o(.data)
    q_tail                                   0x2007c364   Data           4  at_ethernet.o(.data)
    .data                                    0x2007c368   Section        4  at_ip.o(.data)
    netif                                    0x2007c368   Data           1  at_ip.o(.data)
    ip_id                                    0x2007c36a   Data           2  at_ip.o(.data)
    .bss                                     0x2007c36c   Section       60  net_config_http.o(.bss)
    .bss                                     0x2007c3a8   Section      288  net_config_http.o(.bss)
    .bss                                     0x2007c4c8   Section     2112  control.o(.bss)
    .bss                                     0x2007cd08   Section     2496  main.o(.bss)
    .bss                                     0x2007d6c8   Section       50  main.o(.bss)
    .bss                                     0x2007d6fa   Section       20  main.o(.bss)
    .bss                                     0x2007d710   Section      402  full_can.o(.bss)
    .bss                                     0x2007d8a2   Section     2148  uart0.o(.bss)
    .bss                                     0x2007e108   Section    10852  emac_lpc17xx.o(.bss)
    Rx_Desc                                  0x2007e108   Data          32  emac_lpc17xx.o(.bss)
    Rx_Stat                                  0x2007e128   Data          32  emac_lpc17xx.o(.bss)
    Tx_Desc                                  0x2007e148   Data          24  emac_lpc17xx.o(.bss)
    Tx_Stat                                  0x2007e160   Data          12  emac_lpc17xx.o(.bss)
    rx_buf                                   0x2007e16c   Data        6144  emac_lpc17xx.o(.bss)
    tx_buf                                   0x2007f96c   Data        4608  emac_lpc17xx.o(.bss)
    .bss                                     0x20080b6c   Section      128  at_ethernet.o(.bss)
    rx_queue                                 0x20080b6c   Data         128  at_ethernet.o(.bss)

    Global Symbols

    Symbol Name                              Value     Ov Type        Size  Object(Section)

    BuildAttributes$$THM_ISAv4$P$D$K$B$S$PE$A:L22UL41UL21$X:L11$S22US41US21$IEEE1$IW$USESV6$~STKCKD$USESV7$~SHL$OSPACE$ROPI$EBA8$MICROLIB$REQ8$PRES8$EABIv2 0x00000000   Number         0  anon$$obj.o ABSOLUTE
    __ARM_use_no_argv                        0x00000000   Number         0  main.o ABSOLUTE
    __Vectors                                0x00000000   Data           4  startup_lpc17xx.o(RESET)
    _printf_a                                0x00000000   Number         0  stubs.o ABSOLUTE
    _printf_c                                0x00000000   Number         0  stubs.o ABSOLUTE
    _printf_charcount                        0x00000000   Number         0  stubs.o ABSOLUTE
    _printf_d                                0x00000000   Number         0  stubs.o ABSOLUTE
    _printf_e                                0x00000000   Number         0  stubs.o ABSOLUTE
    _printf_f                                0x00000000   Number         0  stubs.o ABSOLUTE
    _printf_flags                            0x00000000   Number         0  stubs.o ABSOLUTE
    _printf_fp_dec                           0x00000000   Number         0  stubs.o ABSOLUTE
    _printf_fp_hex                           0x00000000   Number         0  stubs.o ABSOLUTE
    _printf_g                                0x00000000   Number         0  stubs.o ABSOLUTE
    _printf_i                                0x00000000   Number         0  stubs.o ABSOLUTE
    _printf_int_dec                          0x00000000   Number         0  stubs.o ABSOLUTE
    _printf_l                                0x00000000   Number         0  stubs.o ABSOLUTE
    _printf_lc                               0x00000000   Number         0  stubs.o ABSOLUTE
    _printf_ll                               0x00000000   Number         0  stubs.o ABSOLUTE
    _printf_lld                              0x00000000   Number         0  stubs.o ABSOLUTE
    _printf_lli                              0x00000000   Number         0  stubs.o ABSOLUTE
    _printf_llo                              0x00000000   Number         0  stubs.o ABSOLUTE
    _printf_llu                              0x00000000   Number         0  stubs.o ABSOLUTE
    _printf_llx                              0x00000000   Number         0  stubs.o ABSOLUTE
    _printf_longlong_dec                     0x00000000   Number         0  stubs.o ABSOLUTE
    _printf_longlong_hex                     0x00000000   Number         0  stubs.o ABSOLUTE
    _printf_longlong_oct                     0x00000000   Number         0  stubs.o ABSOLUTE
    _printf_ls                               0x00000000   Number         0  stubs.o ABSOLUTE
    _printf_mbtowc                           0x00000000   Number         0  stubs.o ABSOLUTE
    _printf_n                                0x00000000   Number         0  stubs.o ABSOLUTE
    _printf_o                                0x00000000   Number         0  stubs.o ABSOLUTE
    _printf_p                                0x00000000   Number         0  stubs.o ABSOLUTE
    _printf_percent                          0x00000000   Number         0  stubs.o ABSOLUTE
    _printf_pre_padding                      0x00000000   Number         0  stubs.o ABSOLUTE
    _printf_return_value                     0x00000000   Number         0  stubs.o ABSOLUTE
    _printf_s                                0x00000000   Number         0  stubs.o ABSOLUTE
    _printf_sizespec                         0x00000000   Number         0  stubs.o ABSOLUTE
    _printf_str                              0x00000000   Number         0  stubs.o ABSOLUTE
    _printf_truncate_signed                  0x00000000   Number         0  stubs.o ABSOLUTE
    _printf_truncate_unsigned                0x00000000   Number         0  stubs.o ABSOLUTE
    _printf_u                                0x00000000   Number         0  stubs.o ABSOLUTE
    _printf_wc                               0x00000000   Number         0  stubs.o ABSOLUTE
    _printf_wctomb                           0x00000000   Number         0  stubs.o ABSOLUTE
    _printf_widthprec                        0x00000000   Number         0  stubs.o ABSOLUTE
    _printf_x                                0x00000000   Number         0  stubs.o ABSOLUTE
    arp_notify                                - Undefined Weak Reference
    __main                                   0x000000cd   Thumb Code     0  entry.o(.ARM.Collect$$$$00000000)
    _main_stk                                0x000000cd   Thumb Code     0  entry2.o(.ARM.Collect$$$$00000001)
    _main_scatterload                        0x000000d1   Thumb Code     0  entry5.o(.ARM.Collect$$$$00000004)
    __main_after_scatterload                 0x000000d5   Thumb Code     0  entry5.o(.ARM.Collect$$$$00000004)
    _main_init                               0x000000d5   Thumb Code     0  entry7.o(.ARM.Collect$$$$00000007)
    Reset_Handler                            0x000000e1   Thumb Code     4  startup_lpc17xx.o(.text)
    NMI_Handler                              0x000000e5   Thumb Code     2  startup_lpc17xx.o(.text)
    HardFault_Handler                        0x000000e7   Thumb Code     2  startup_lpc17xx.o(.text)
    MemManage_Handler                        0x000000e9   Thumb Code     2  startup_lpc17xx.o(.text)
    BusFault_Handler                         0x000000eb   Thumb Code     2  startup_lpc17xx.o(.text)
    UsageFault_Handler                       0x000000ed   Thumb Code     2  startup_lpc17xx.o(.text)
    SVC_Handler                              0x000000ef   Thumb Code     2  startup_lpc17xx.o(.text)
    DebugMon_Handler                         0x000000f1   Thumb Code     2  startup_lpc17xx.o(.text)
    PendSV_Handler                           0x000000f3   Thumb Code     2  startup_lpc17xx.o(.text)
    BOD_IRQHandler                           0x000000f7   Thumb Code     0  startup_lpc17xx.o(.text)
    CANActivity_IRQHandler                   0x000000f7   Thumb Code     0  startup_lpc17xx.o(.text)
    DMA_IRQHandler                           0x000000f7   Thumb Code     0  startup_lpc17xx.o(.text)
    EINT0_IRQHandler                         0x000000f7   Thumb Code     0  startup_lpc17xx.o(.text)
    EINT1_IRQHandler                         0x000000f7   Thumb Code     0  startup_lpc17xx.o(.text)
    EINT2_IRQHandler                         0x000000f7   Thumb Code     0  startup_lpc17xx.o(.text)
    EINT3_IRQHandler                         0x000000f7   Thumb Code     0  startup_lpc17xx.o(.text)
    I2C0_IRQHandler                          0x000000f7   Thumb Code     0  startup_lpc17xx.o(.text)
    I2C1_IRQHandler                          0x000000f7   Thumb Code     0  startup_lpc17xx.o(.text)
    I2C2_IRQHandler                          0x000000f7   Thumb Code     0  startup_lpc17xx.o(.text)
    I2S_IRQHandler                           0x000000f7   Thumb Code     0  startup_lpc17xx.o(.text)
    MCPWM_IRQHandler                         0x000000f7   Thumb Code     0  startup_lpc17xx.o(.text)
    PLL0_IRQHandler                          0x000000f7   Thumb Code     0  startup_lpc17xx.o(.text)
    PLL1_IRQHandler                          0x000000f7   Thumb Code     0  startup_lpc17xx.o(.text)
    PWM1_IRQHandler                          0x000000f7   Thumb Code     0  startup_lpc17xx.o(.text)
    QEI_IRQHandler                           0x000000f7   Thumb Code     0  startup_lpc17xx.o(.text)
    RIT_IRQHandler                           0x000000f7   Thumb Code     0  startup_lpc17xx.o(.text)
    RTC_IRQHandler                           0x000000f7   Thumb Code     0  startup_lpc17xx.o(.text)
    SPI_IRQHandler                           0x000000f7   Thumb Code     0  startup_lpc17xx.o(.text)
    SSP0_IRQHandler                          0x000000f7   Thumb Code     0  startup_lpc17xx.o(.text)
    SSP1_IRQHandler                          0x000000f7   Thumb Code     0  startup_lpc17xx.o(.text)
    TIMER2_IRQHandler                        0x000000f7   Thumb Code     0  startup_lpc17xx.o(.text)
    TIMER3_IRQHandler                        0x000000f7   Thumb Code     0  startup_lpc17xx.o(.text)
    UART1_IRQHandler                         0x000000f7   Thumb Code     0  startup_lpc17xx.o(.text)
    UART2_IRQHandler                         0x000000f7   Thumb Code     0  startup_lpc17xx.o(.text)
    UART3_IRQHandler                         0x000000f7   Thumb Code     0  startup_lpc17xx.o(.text)
    USBActivity_IRQHandler                   0x000000f7   Thumb Code     0  startup_lpc17xx.o(.text)
    USB_IRQHandler                           0x000000f7   Thumb Code     0  startup_lpc17xx.o(.text)
    WDT_IRQHandler                           0x000000f7   Thumb Code     0  startup_lpc17xx.o(.text)
    sys_error                                0x000000fd   Thumb Code     2  net_config_http.o(.text)
    run_system                               0x000000ff   Thumb Code    18  net_config_http.o(.text)
    process_hl_udp                           0x00000111   Thumb Code     4  net_config_http.o(.text)
    process_hl_tcp                           0x00000115   Thumb Code     4  net_config_http.o(.text)
    dispatch_frame                           0x00000119   Thumb Code    10  net_config_http.o(.text)
    igmp_is_member                           0x00000123   Thumb Code     4  net_config_http.o(.text)
    mess_hndl                                0x00000129   Thumb Code    56  mess.o(.text)
    mess_send                                0x00000161   Thumb Code    46  mess.o(.text)
    mess_find                                0x0000018f   Thumb Code    64  mess.o(.text)
    mess_find_unvol                          0x000001cf   Thumb Code    56  mess.o(.text)
    ret_ind                                  0x00000211   Thumb Code    10  ret.o(.text)
    ret_ind_sec                              0x0000021b   Thumb Code     8  ret.o(.text)
    ret                                      0x00000223   Thumb Code     6  ret.o(.text)
    ret_hndl                                 0x00000229   Thumb Code    28  ret.o(.text)
    gran_ring_char                           0x00000249   Thumb Code    22  gran.o(.text)
    gran_char                                0x0000025f   Thumb Code    22  gran.o(.text)
    gran                                     0x00000275   Thumb Code    22  gran.o(.text)
    gran_ring                                0x0000028b   Thumb Code    22  gran.o(.text)
    TIMER0_IRQHandler                        0x000002a1   Thumb Code    44  timer.o(.text)
    TIMER1_IRQHandler                        0x000002cd   Thumb Code    16  timer.o(.text)
    strlen                                   0x000002ed   Thumb Code    16  strlen.o(.text)
    clr_scrn                                 0x00000301   Thumb Code    18  common_func.o(.text)
    find                                     0x00000313   Thumb Code    22  common_func.o(.text)
    bin2bcd_int                              0x00000329   Thumb Code    30  common_func.o(.text)
    bcd2lcd_zero                             0x00000347   Thumb Code    62  common_func.o(.text)
    int2lcd_mmm                              0x00000385   Thumb Code   158  common_func.o(.text)
    __TCP_ARM_VER                            0x00000413   Number         0  at_system.o ABSOLUTE
    long2lcd_mmm                             0x00000423   Thumb Code   156  common_func.o(.text)
    long2lcdyx_mmm                           0x000004bf   Thumb Code   166  common_func.o(.text)
    int2lcdyx                                0x00000565   Thumb Code    78  common_func.o(.text)
    sub_bgnd                                 0x000005b3   Thumb Code    38  common_func.o(.text)
    int2lcd                                  0x000005d9   Thumb Code    88  common_func.o(.text)
    ptr_carry                                0x00000631   Thumb Code    18  common_func.o(.text)
    long2lcdhyx                              0x00000643   Thumb Code   126  common_func.o(.text)
    char2lcdhyx                              0x000006c1   Thumb Code    56  common_func.o(.text)
    int2lcdhyx                               0x000006f9   Thumb Code    64  common_func.o(.text)
    char2lcdbyx                              0x00000739   Thumb Code   120  common_func.o(.text)
    pointer_set                              0x000007b1   Thumb Code   122  common_func.o(.text)
    tree_down                                0x0000082b   Thumb Code    38  common_func.o(.text)
    tree_up                                  0x00000851   Thumb Code    40  common_func.o(.text)
    bgnd_par                                 0x00000879   Thumb Code    94  common_func.o(.text)
    show_mess                                0x000008d7   Thumb Code    38  common_func.o(.text)
    ubat_old_drv                             0x00000911   Thumb Code    44  control.o(.text)
    unet_drv                                 0x0000093d   Thumb Code    56  control.o(.text)
    matemat                                  0x00000975   Thumb Code   146  control.o(.text)
    adc_init                                 0x00000a07   Thumb Code   124  control.o(.text)
    adc_drv7                                 0x00000a83   Thumb Code   398  control.o(.text)
    bps_hndl                                 0x00000c11   Thumb Code   562  control.o(.text)
    bps_drv                                  0x00000e43   Thumb Code   330  control.o(.text)
    avar_hndl                                0x00000fb9   Thumb Code   320  avar_hndl.o(.text)
    reload_hndl                              0x000010f9   Thumb Code   284  avar_hndl.o(.text)
    avar_bps_hndl                            0x00001215   Thumb Code   682  avar_hndl.o(.text)
    abs_pal                                  0x000014c1   Thumb Code    10  main.o(.text)
    ADC_IRQHandler                           0x000014cb   Thumb Code    48  main.o(.text)
    can_reset_hndl                           0x000014fb   Thumb Code   122  main.o(.text)
    net_drv                                  0x00001575   Thumb Code   454  main.o(.text)
    parol_init                               0x0000173b   Thumb Code    18  main.o(.text)
    bitmap_hndl                              0x0000174d   Thumb Code   124  main.o(.text)
    ind_hndl                                 0x000017c9   Thumb Code 13358  main.o(.text)
    but_drv                                  0x00004bf7   Thumb Code   294  main.o(.text)
    but_an                                   0x00004d1d   Thumb Code  9784  main.o(.text)
    watchdog_enable                          0x00007355   Thumb Code    24  main.o(.text)
    watchdog_reset                           0x0000736d   Thumb Code    12  main.o(.text)
    SysTick_Handler                          0x00007379   Thumb Code   256  main.o(.text)
    main                                     0x00007479   Thumb Code   676  main.o(.text)
    memo_read                                0x00007771   Thumb Code  2152  memo.o(.text)
    SystemInit                               0x000080ad   Thumb Code   314  system_lpc17xx.o(.text)
    beep_drv                                 0x00008201   Thumb Code    72  beep.o(.text)
    beep_init                                0x00008249   Thumb Code    48  beep.o(.text)
    beep_hndl                                0x00008279   Thumb Code   188  beep.o(.text)
    spi1_ad7705_config                       0x00008359   Thumb Code    46  ad7705.o(.text)
    ad7705_reset                             0x00008387   Thumb Code    34  ad7705.o(.text)
    ad7705_write                             0x000083a9   Thumb Code    94  ad7705.o(.text)
    ad7705_read                              0x00008407   Thumb Code   134  ad7705.o(.text)
    ad7705_drv                               0x0000848d   Thumb Code   192  ad7705.o(.text)
    lcd1_chk                                 0x00008565   Thumb Code    82  lcd_agm1232_uku207_3.o(.text)
    lcd2_chk                                 0x000085b7   Thumb Code    82  lcd_agm1232_uku207_3.o(.text)
    lcd1_wr                                  0x00008609   Thumb Code   174  lcd_agm1232_uku207_3.o(.text)
    lcd2_wr                                  0x000086b7   Thumb Code   182  lcd_agm1232_uku207_3.o(.text)
    data1_wr                                 0x0000876d   Thumb Code   184  lcd_agm1232_uku207_3.o(.text)
    data2_wr                                 0x00008825   Thumb Code   182  lcd_agm1232_uku207_3.o(.text)
    lcd_set_page                             0x000088db   Thumb Code    20  lcd_agm1232_uku207_3.o(.text)
    lcd_set_col                              0x000088ef   Thumb Code    16  lcd_agm1232_uku207_3.o(.text)
    lcd_set_raw                              0x000088ff   Thumb Code    20  lcd_agm1232_uku207_3.o(.text)
    lcd_init                                 0x00008913   Thumb Code    96  lcd_agm1232_uku207_3.o(.text)
    lcd_clear                                0x00008973   Thumb Code    48  lcd_agm1232_uku207_3.o(.text)
    lcd_on                                   0x000089a3   Thumb Code    16  lcd_agm1232_uku207_3.o(.text)
    lcd_out                                  0x000089b3   Thumb Code    78  lcd_agm1232_uku207_3.o(.text)
    spi1                                     0x00008a01   Thumb Code    16  25lc640.o(.text)
    spi1_config                              0x00008a11   Thumb Code    46  25lc640.o(.text)
    spi1_unconfig                            0x00008a3f   Thumb Code    42  25lc640.o(.text)
    lc640_wren                               0x00008a69   Thumb Code    52  25lc640.o(.text)
    lc640_rdsr                               0x00008a9d   Thumb Code    62  25lc640.o(.text)
    lc640_read_int                           0x00008adb   Thumb Code   112  25lc640.o(.text)
    lc640_read_long                          0x00008b4b   Thumb Code   136  25lc640.o(.text)
    lc640_read_long_ptr                      0x00008bd3   Thumb Code   128  25lc640.o(.text)
    lc640_write                              0x00008c53   Thumb Code   110  25lc640.o(.text)
    lc640_write_int                          0x00008cc1   Thumb Code   118  25lc640.o(.text)
    lc640_write_long                         0x00008d37   Thumb Code   132  25lc640.o(.text)
    lc640_write_long_ptr                     0x00008dbb   Thumb Code   142  25lc640.o(.text)
    can1_out_adr                             0x00008e49   Thumb Code   986  full_can.o(.text)
    can1_out                                 0x00009223   Thumb Code   160  full_can.o(.text)
    can2_out                                 0x000092c3   Thumb Code   146  full_can.o(.text)
    can_in_an2                               0x00009355   Thumb Code    22  full_can.o(.text)
    can_in_an1                               0x0000936b   Thumb Code   588  full_can.o(.text)
    CAN_ISR_Rx1                              0x000095b7   Thumb Code   138  full_can.o(.text)
    CAN_ISR_Rx2                              0x00009641   Thumb Code   232  full_can.o(.text)
    can_isr_tx1                              0x00009729   Thumb Code    94  full_can.o(.text)
    can_isr_tx2                              0x00009787   Thumb Code    86  full_can.o(.text)
    can1_init                                0x000097dd   Thumb Code    74  full_can.o(.text)
    can2_init                                0x00009827   Thumb Code    74  full_can.o(.text)
    FullCAN_SetFilter                        0x00009871   Thumb Code   186  full_can.o(.text)
    CAN_IRQHandler                           0x0000992b   Thumb Code    98  full_can.o(.text)
    crc_87                                   0x000099c9   Thumb Code    32  uart0.o(.text)
    crc_95                                   0x000099e9   Thumb Code    32  uart0.o(.text)
    putchar0                                 0x00009a09   Thumb Code    56  uart0.o(.text)
    uart_out_adr0                            0x00009a41   Thumb Code    62  uart0.o(.text)
    UARTInit                                 0x00009a7f   Thumb Code   204  uart0.o(.text)
    UART0_IRQHandler                         0x00009b4b   Thumb Code   174  uart0.o(.text)
    uart_in_an0                              0x00009bf9   Thumb Code   488  uart0.o(.text)
    index_offset0                            0x00009de1   Thumb Code    28  uart0.o(.text)
    control_check0                           0x00009dfd   Thumb Code    74  uart0.o(.text)
    uart_in0                                 0x00009e47   Thumb Code   144  uart0.o(.text)
    int_enable_eth                           0x00009ef9   Thumb Code    10  emac_lpc17xx.o(.text)
    int_disable_eth                          0x00009f03   Thumb Code    10  emac_lpc17xx.o(.text)
    send_frame                               0x00009f0d   Thumb Code    62  emac_lpc17xx.o(.text)
    ENET_IRQHandler                          0x00009f4b   Thumb Code   128  emac_lpc17xx.o(.text)
    __aeabi_uidiv                            0x00009fdd   Thumb Code     0  uidiv.o(.text)
    __aeabi_uidivmod                         0x00009fdd   Thumb Code    44  uidiv.o(.text)
    __scatterload                            0x0000a009   Thumb Code    28  init.o(.text)
    __scatterload_rt2                        0x0000a009   Thumb Code     0  init.o(.text)
    __decompress                             0x0000a02d   Thumb Code     0  __dczerorl.o(.text)
    __decompress0                            0x0000a02d   Thumb Code    58  __dczerorl.o(.text)
    CalcChksum                               0x0000a067   Thumb Code    22  at_lib.o(i.CalcChksum)
    CalcChksumBuf                            0x0000a07d   Thumb Code    40  at_lib.o(i.CalcChksumBuf)
    CalcChksumVal                            0x0000a0a5   Thumb Code    10  at_lib.o(i.CalcChksumVal)
    SwapB                                    0x0000a0af   Thumb Code    10  at_lib.o(i.SwapB)
    __0sprintf$6                             0x0000a0b9   Thumb Code    34  printf6.o(i.__0sprintf$6)
    __1sprintf$6                             0x0000a0b9   Thumb Code     0  printf6.o(i.__0sprintf$6)
    __2sprintf                               0x0000a0b9   Thumb Code     0  printf6.o(i.__0sprintf$6)
    __scatterload_copy                       0x0000a0e1   Thumb Code    14  handlers.o(i.__scatterload_copy)
    __scatterload_null                       0x0000a0ef   Thumb Code     2  handlers.o(i.__scatterload_null)
    __scatterload_zeroinit                   0x0000a0f1   Thumb Code    14  handlers.o(i.__scatterload_zeroinit)
    alloc_mem                                0x0000a499   Thumb Code   152  at_mem.o(i.alloc_mem)
    arp_cache_add                            0x0000a53d   Thumb Code   176  at_arp.o(i.arp_cache_add)
    arp_cache_find                           0x0000a66d   Thumb Code   254  at_arp.o(i.arp_cache_find)
    arp_cache_update                         0x0000a785   Thumb Code   218  at_arp.o(i.arp_cache_update)
    arp_send_req                             0x0000a981   Thumb Code   154  at_arp.o(i.arp_send_req)
    cgi_func                                 0x0000aa2d   Thumb Code     4  at_http_cgi.o(i.cgi_func)
    cgi_process_data                         0x0000aa31   Thumb Code     2  at_http_cgi.o(i.cgi_process_data)
    cgx_content_type                         0x0000aa33   Thumb Code     4  at_http.o(i.cgx_content_type)
    eth_chk_adr                              0x0000aa39   Thumb Code    10  at_ethernet.o(i.eth_chk_adr)
    eth_send_frame                           0x0000aa49   Thumb Code   138  at_ethernet.o(i.eth_send_frame)
    free_mem                                 0x0000aae1   Thumb Code    94  at_mem.o(i.free_mem)
    get_crc                                  0x0000ab49   Thumb Code    36  at_lib.o(i.get_crc)
    get_u32                                  0x0000ab71   Thumb Code    22  at_lib.o(i.get_u32)
    http_fclose                              0x0000af51   Thumb Code     2  at_http_uif.o(i.http_fclose)
    http_fgets                               0x0000af53   Thumb Code     4  at_http_uif.o(i.http_fgets)
    http_finfo                               0x0000af57   Thumb Code     4  at_http_uif.o(i.http_finfo)
    http_fopen                               0x0000af5b   Thumb Code     4  at_http_uif.o(i.http_fopen)
    http_fread                               0x0000af5f   Thumb Code     4  at_http_uif.o(i.http_fread)
    ip_chk_frame                             0x0000b119   Thumb Code   186  at_ip.o(i.ip_chk_frame)
    ip_get_locadr                            0x0000b1e9   Thumb Code   140  at_ip.o(i.ip_get_locadr)
    ip_send_frame                            0x0000b281   Thumb Code   140  at_ip.o(i.ip_send_frame)
    is_subnet                                0x0000b311   Thumb Code    34  at_lib.o(i.is_subnet)
    is_subnet_bcast                          0x0000b335   Thumb Code    40  at_arp.o(i.is_subnet_bcast)
    main_TcpNet                              0x0000b361   Thumb Code    52  at_system.o(i.main_TcpNet)
    mem_comp                                 0x0000b39d   Thumb Code    30  at_lib.o(i.mem_comp)
    mem_copy                                 0x0000b3bd   Thumb Code    28  at_lib.o(i.mem_copy)
    mem_set                                  0x0000b3d9   Thumb Code    16  at_lib.o(i.mem_set)
    mem_test                                 0x0000b3e9   Thumb Code    22  at_lib.o(i.mem_test)
    poll_ethernet                            0x0000b3ff   Thumb Code     2  at_ethernet.o(i.poll_ethernet)
    process_arp                              0x0000b401   Thumb Code   142  at_arp.o(i.process_arp)
    process_hl_igmp                          0x0000b499   Thumb Code     2  at_ethernet.o(i.process_hl_igmp)
    process_icmp                             0x0000b49b   Thumb Code   116  at_icmp.o(i.process_icmp)
    process_tcp                              0x0000b511   Thumb Code  1132  at_tcp.o(i.process_tcp)
    process_udp                              0x0000b97d   Thumb Code   186  at_udp.o(i.process_udp)
    put_in_queue                             0x0000ba41   Thumb Code    36  at_ethernet.o(i.put_in_queue)
    resize_mem                               0x0000bb0d   Thumb Code    48  at_mem.o(i.resize_mem)
    run_eth_link                             0x0000bb41   Thumb Code   162  at_ethernet.o(i.run_eth_link)
    run_http_server                          0x0000bbf1   Thumb Code   742  at_http.o(i.run_http_server)
    set_u32                                  0x0000bee9   Thumb Code    16  at_lib.o(i.set_u32)
    str_copy                                 0x0000bef9   Thumb Code    22  at_lib.o(i.str_copy)
    str_crc                                  0x0000bf0f   Thumb Code    26  at_lib.o(i.str_crc)
    tcp_abort                                0x0000bf29   Thumb Code    78  at_tcp.o(i.tcp_abort)
    tcp_close                                0x0000bf81   Thumb Code   122  at_tcp.o(i.tcp_close)
    tcp_get_buf                              0x0000c005   Thumb Code    16  at_tcp.o(i.tcp_get_buf)
    tcp_get_state                            0x0000c015   Thumb Code    34  at_tcp.o(i.tcp_get_state)
    tcp_listen                               0x0000c055   Thumb Code   114  at_tcp.o(i.tcp_listen)
    tcp_max_dsize                            0x0000c171   Thumb Code    32  at_tcp.o(i.tcp_max_dsize)
    tcp_poll_sockets                         0x0000c195   Thumb Code   472  at_tcp.o(i.tcp_poll_sockets)
    tcp_send                                 0x0000c3f9   Thumb Code   244  at_tcp.o(i.tcp_send)
    timer_tick                               0x0000c71d   Thumb Code     8  at_system.o(i.timer_tick)
    netif_cfg                                0x0000c808   Data           1  net_config_http.o(.constdata)
    MPool_Size                               0x0000c80c   Data           4  net_config_http.o(.constdata)
    tick_rate                                0x0000c810   Data           2  net_config_http.o(.constdata)
    arp_TabSize                              0x0000c812   Data           2  net_config_http.o(.constdata)
    arp_TimeOut                              0x0000c814   Data           2  net_config_http.o(.constdata)
    arp_MaxRetry                             0x0000c816   Data           1  net_config_http.o(.constdata)
    arp_Resend                               0x0000c817   Data           1  net_config_http.o(.constdata)
    udp_NumSocks                             0x0000c818   Data           1  net_config_http.o(.constdata)
    tcp_NumSocks                             0x0000c819   Data           1  net_config_http.o(.constdata)
    tcp_MaxRetry                             0x0000c81a   Data           1  net_config_http.o(.constdata)
    tcp_RetryTout                            0x0000c81c   Data           2  net_config_http.o(.constdata)
    tcp_2MSSTout                             0x0000c81e   Data           2  net_config_http.o(.constdata)
    tcp_SynRetryTout                         0x0000c820   Data           2  net_config_http.o(.constdata)
    tcp_InitRetryTout                        0x0000c822   Data           2  net_config_http.o(.constdata)
    tcp_ConRetry                             0x0000c824   Data           1  net_config_http.o(.constdata)
    http_NumSess                             0x0000c825   Data           1  net_config_http.o(.constdata)
    http_PortNum                             0x0000c826   Data           2  net_config_http.o(.constdata)
    http_auth_dev                            0x0000c828   Data          20  net_config_http.o(.constdata)
    ADR_EE_BAT_ZAR_CNT                       0x0000c83c   Data           4  eeprom_map.o(.constdata)
    ADR_EE_BAT_ZAR_CNT_KE                    0x0000c840   Data           4  eeprom_map.o(.constdata)
    ADR_EE_BAT_C_NOM                         0x0000c844   Data           4  eeprom_map.o(.constdata)
    ADR_EE_BAT_YEAR_OF_ON                    0x0000c848   Data           4  eeprom_map.o(.constdata)
    ADR_EE_BAT_IS_ON                         0x0000c84c   Data           4  eeprom_map.o(.constdata)
    ADR_EE_BAT_DAY_OF_ON                     0x0000c850   Data           4  eeprom_map.o(.constdata)
    ADR_EE_BAT_MONTH_OF_ON                   0x0000c854   Data           4  eeprom_map.o(.constdata)
    ADR_EE_BAT_RESURS                        0x0000c858   Data           4  eeprom_map.o(.constdata)
    ADR_EE_BAT_C_REAL                        0x0000c85c   Data           4  eeprom_map.o(.constdata)
    caracter                                 0x0000c860   Data        1536  main.o(.constdata)
    sm_mont                                  0x0000ce60   Data          52  main.o(.constdata)
    sm_                                      0x0000ce94   Data          21  main.o(.constdata)
    sm_exit                                  0x0000cea9   Data          21  main.o(.constdata)
    sm_time                                  0x0000cebe   Data          21  main.o(.constdata)
    ABCDEF                                   0x0000ced3   Data          17  main.o(.constdata)
    Table87                                  0x0000cee4   Data         256  full_can.o(.constdata)
    Table95                                  0x0000cfe4   Data         256  full_can.o(.constdata)
    MAC_Broadcast                            0x0000d1ae   Data           6  at_ethernet.o(.constdata)
    IP_Broadcast                             0x0000d1b4   Data           4  at_ip.o(.constdata)
    http_err_401                             0x0000d1b8   Data          94  http_err.o(.constdata)
    http_err_404                             0x0000d216   Data          91  http_err.o(.constdata)
    http_err_501                             0x0000d271   Data          83  http_err.o(.constdata)
    http_err_head                            0x0000d2c4   Data          59  http_err.o(.constdata)
    http_err_foot                            0x0000d2ff   Data         137  http_err.o(.constdata)
    FileMD                                   0x0000d388   Data           4  at_web.o(.constdata)
    FileTab                                  0x0000d518   Data          16  at_web.o(.constdata)
    Region$$Table$$Base                      0x0000d528   Number         0  anon$$obj.o(Region$$Table)
    Region$$Table$$Limit                     0x0000d568   Number         0  anon$$obj.o(Region$$Table)
    i_avg_max                                0x10000000   Data           4  control.o(.data)
    avg                                      0x10000004   Data           4  control.o(.data)
    bAVG                                     0x10000008   Data           1  control.o(.data)
    spc_bat                                  0x10000009   Data           1  control.o(.data)
    vz_cnt_s                                 0x1000000a   Data           2  control.o(.data)
    vz_cnt_s_                                0x1000000c   Data           2  control.o(.data)
    vz_cnt_h_                                0x1000000e   Data           2  control.o(.data)
    __ee_spc_stat                            0x10000010   Data           2  control.o(.data)
    __ee_spc_phase                           0x10000012   Data           2  control.o(.data)
    mess_data                                0x10000014   Data           8  mess.o(.data)
    retind                                   0x1000001c   Data           1  ret.o(.data)
    retsub                                   0x1000001d   Data           1  ret.o(.data)
    retindsec                                0x1000001e   Data           1  ret.o(.data)
    f0                                       0x1000001f   Data           1  ret.o(.data)
    fc0                                      0x10000020   Data           1  ret.o(.data)
    f1                                       0x10000021   Data           1  ret.o(.data)
    fc1                                      0x10000022   Data           1  ret.o(.data)
    ret_duty                                 0x10000024   Data           2  ret.o(.data)
    retcnt                                   0x10000028   Data           4  ret.o(.data)
    retcntsec                                0x1000002c   Data           4  ret.o(.data)
    bps_stat                                 0x10000030   Data           1  main.o(.data)
    Ktext                                    0x10000032   Data           6  main.o(.data)
    UB0                                      0x10000038   Data           2  main.o(.data)
    AV_OFF_AVT                               0x1000003a   Data           2  main.o(.data)
    UMN                                      0x1000003c   Data           2  main.o(.data)
    APV_ON                                   0x1000003e   Data           2  main.o(.data)
    PAR                                      0x10000040   Data           2  main.o(.data)
    NUMEXT                                   0x10000042   Data           2  main.o(.data)
    AUSW_MAIN_NUMBER                         0x10000044   Data           4  main.o(.data)
    AUSW_DAY                                 0x10000048   Data           2  main.o(.data)
    AUSW_YEAR                                0x1000004a   Data           2  main.o(.data)
    AUSW_UKU_SUB                             0x1000004c   Data           2  main.o(.data)
    AUSW_BPS1_NUMBER                         0x10000050   Data           4  main.o(.data)
    AUSW_PDH                                 0x10000054   Data           2  main.o(.data)
    AUSW_ETH                                 0x10000056   Data           2  main.o(.data)
    TMAX_EXT                                 0x10000058   Data           6  main.o(.data)
    TMIN_EXT                                 0x1000005e   Data           6  main.o(.data)
    T_EXT_ZVUK_EN                            0x10000064   Data           6  main.o(.data)
    T_EXT_RS_EN                              0x1000006a   Data           6  main.o(.data)
    ETH_DHCP_ON                              0x10000070   Data           2  main.o(.data)
    ETH_IP_2                                 0x10000072   Data           2  main.o(.data)
    ETH_IP_4                                 0x10000074   Data           2  main.o(.data)
    ETH_MASK_2                               0x10000076   Data           2  main.o(.data)
    ETH_MASK_4                               0x10000078   Data           2  main.o(.data)
    ETH_TRAP1_IP_2                           0x1000007a   Data           2  main.o(.data)
    ETH_TRAP1_IP_4                           0x1000007c   Data           2  main.o(.data)
    ETH_TRAP2_IP_2                           0x1000007e   Data           2  main.o(.data)
    ETH_TRAP2_IP_4                           0x10000080   Data           2  main.o(.data)
    ETH_TRAP3_IP_2                           0x10000082   Data           2  main.o(.data)
    ETH_TRAP3_IP_4                           0x10000084   Data           2  main.o(.data)
    ETH_TRAP4_IP_2                           0x10000086   Data           2  main.o(.data)
    ETH_TRAP4_IP_4                           0x10000088   Data           2  main.o(.data)
    ETH_TRAP5_IP_2                           0x1000008a   Data           2  main.o(.data)
    ETH_TRAP5_IP_4                           0x1000008c   Data           2  main.o(.data)
    ETH_SNMP_PORT_WRITE                      0x1000008e   Data           2  main.o(.data)
    ETH_GW_2                                 0x10000090   Data           2  main.o(.data)
    ETH_GW_4                                 0x10000092   Data           2  main.o(.data)
    ext_can_cnt                              0x10000094   Data           1  main.o(.data)
    _x_                                      0x10000096   Data           2  main.o(.data)
    Kiload0                                  0x10000098   Data           2  main.o(.data)
    SystemFrequency                          0x1000009c   Data           4  system_lpc17xx.o(.data)
    timer0_counter                           0x100000a0   Data           4  timer.o(.data)
    timer1_counter                           0x100000a4   Data           4  timer.o(.data)
    beep_stat_cnt                            0x100000a9   Data           1  beep.o(.data)
    beep_cnt                                 0x100000aa   Data           1  beep.o(.data)
    bU_BAT2REL_AV_BAT                        0x100000ab   Data           1  beep.o(.data)
    beep_stat_temp                           0x100000ac   Data           4  beep.o(.data)
    beep_stat                                0x100000b0   Data           4  beep.o(.data)
    bOUT_FREE                                0x100000b4   Data           1  full_can.o(.data)
    bOUT_FREE2                               0x100000b5   Data           1  full_can.o(.data)
    can_reset_cnt                            0x100000b6   Data           1  full_can.o(.data)
    ptr_can1_tx_wr                           0x100000b7   Data           1  full_can.o(.data)
    ptr_can1_tx_rd                           0x100000b8   Data           1  full_can.o(.data)
    ptr_can2_tx_wr                           0x100000b9   Data           1  full_can.o(.data)
    ptr_can2_tx_rd                           0x100000ba   Data           1  full_can.o(.data)
    bR                                       0x100000bb   Data           1  full_can.o(.data)
    bIN                                      0x100000bc   Data           1  full_can.o(.data)
    bIN2                                     0x100000bd   Data           1  full_can.o(.data)
    can_tx_cnt                               0x100000be   Data           1  full_can.o(.data)
    cnt_can_pal                              0x100000bf   Data           1  full_can.o(.data)
    plazma_can                               0x100000c0   Data           1  full_can.o(.data)
    plazma_can1                              0x100000c1   Data           1  full_can.o(.data)
    plazma_can2                              0x100000c2   Data           1  full_can.o(.data)
    plazma_can3                              0x100000c3   Data           1  full_can.o(.data)
    plazma_can4                              0x100000c4   Data           1  full_can.o(.data)
    gCANFilter                               0x100000c6   Data           2  full_can.o(.data)
    can2_tx_cnt                              0x100000c8   Data           2  full_can.o(.data)
    CANStatus                                0x100000cc   Data           4  full_can.o(.data)
    UART0TxEmpty                             0x100000d0   Data           1  uart0.o(.data)
    bRXIN0                                   0x100000d1   Data           1  uart0.o(.data)
    rx_buffer_overflow0                      0x100000d2   Data           1  uart0.o(.data)
    rx_wr_index0                             0x100000d4   Data           2  uart0.o(.data)
    rx_rd_index0                             0x100000d6   Data           2  uart0.o(.data)
    rx_counter0                              0x100000d8   Data           2  uart0.o(.data)
    tx_wr_index0                             0x100000da   Data           2  uart0.o(.data)
    tx_rd_index0                             0x100000dc   Data           2  uart0.o(.data)
    tx_counter0                              0x100000de   Data           2  uart0.o(.data)
    UART0Status                              0x100000e0   Data           4  uart0.o(.data)
    sys_tick                                 0x100000e8   Data           1  at_system.o(.data)
    sec_tick                                 0x100000e9   Data           1  at_system.o(.data)
    timer_cnt                                0x100000ec   Data           2  at_system.o(.data)
    Mem_Pool                                 0x100000f4   Data       16384  net_config_http.o(.bss)
    arp_table                                0x100040f4   Data         140  net_config_http.o(.bss)
    tcp_socket                               0x10004180   Data         352  net_config_http.o(.bss)
    mess                                     0x100042e0   Data          10  mess.o(.bss)
    mess_old                                 0x100042ea   Data          10  mess.o(.bss)
    mess_cnt                                 0x100042f4   Data          10  mess.o(.bss)
    mess_par0                                0x10004300   Data          40  mess.o(.bss)
    mess_par1                                0x10004328   Data          40  mess.o(.bss)
    eb2_data                                 0x10004350   Data          30  main.o(.bss)
    ad7705_buff                              0x1000436e   Data          64  ad7705.o(.bss)
    localm                                   0x100043b0   Data          60  at_system.o(.bss)
    __initial_sp                             0x10004bf0   Data           0  startup_lpc17xx.o(STACK)
    own_hw_adr                               0x2007c000   Data           6  net_config_http.o(.data)
    adc_self_ch_cnt                          0x2007c006   Data           1  control.o(.data)
    adc_ch_net                               0x2007c007   Data           1  control.o(.data)
    adc_ch                                   0x2007c008   Data           1  control.o(.data)
    adc_ch_cnt                               0x2007c009   Data           1  control.o(.data)
    adc_window_flag                          0x2007c00a   Data           1  control.o(.data)
    ch_cnt0                                  0x2007c00b   Data           1  control.o(.data)
    b1Hz_ch                                  0x2007c00c   Data           1  control.o(.data)
    sh_cnt0                                  0x2007c00d   Data           1  control.o(.data)
    b1Hz_sh                                  0x2007c00e   Data           1  control.o(.data)
    cntrl_stat_U                             0x2007c010   Data           2  control.o(.data)
    cntrl_stat_I                             0x2007c012   Data           2  control.o(.data)
    net_buff_                                0x2007c014   Data           2  control.o(.data)
    adc_result                               0x2007c016   Data           2  control.o(.data)
    adc_gorb_cnt                             0x2007c018   Data           2  control.o(.data)
    adc_zero_cnt                             0x2007c01a   Data           2  control.o(.data)
    adc_window_cnt                           0x2007c01c   Data           2  control.o(.data)
    adc_net_buff_cnt                         0x2007c01e   Data           2  control.o(.data)
    IZMAX_                                   0x2007c020   Data           2  control.o(.data)
    samokalibr_cnt                           0x2007c022   Data           2  control.o(.data)
    main_kb_cnt                              0x2007c024   Data           2  control.o(.data)
    cntrl_stat_blok_cnt                      0x2007c026   Data           2  control.o(.data)
    cntrl_stat_blok_cnt_                     0x2007c028   Data           2  control.o(.data)
    adc_self_ch_buff                         0x2007c02a   Data           6  control.o(.data)
    adc_self_ch_disp                         0x2007c030   Data           6  control.o(.data)
    rele_stat                                0x2007c036   Data           1  control.o(.data)
    i_avg_min                                0x2007c038   Data           4  control.o(.data)
    spc_stat                                 0x2007c03c   Data           1  control.o(.data)
    spc_phase                                0x2007c03d   Data           1  control.o(.data)
    vz_cnt_h                                 0x2007c03e   Data           2  control.o(.data)
    __ee_vz_cnt                              0x2007c040   Data           2  control.o(.data)
    __ee_spc_bat                             0x2007c042   Data           2  control.o(.data)
    avar_stat                                0x2007c044   Data           4  avar_hndl.o(.data)
    avar_ind_stat                            0x2007c048   Data           4  avar_hndl.o(.data)
    avar_stat_old                            0x2007c04c   Data           4  avar_hndl.o(.data)
    avar_stat_new                            0x2007c050   Data           4  avar_hndl.o(.data)
    avar_stat_offed                          0x2007c054   Data           4  avar_hndl.o(.data)
    av_inv                                   0x2007c058   Data           6  avar_hndl.o(.data)
    cnt_of_slave                             0x2007c060   Data           1  main.o(.data)
    mnemo_cnt                                0x2007c061   Data           1  main.o(.data)
    bRESET                                   0x2007c062   Data           1  main.o(.data)
    bRESET_EXT                               0x2007c063   Data           1  main.o(.data)
    tbatdisable_cmnd                         0x2007c064   Data           1  main.o(.data)
    tloaddisable_cmnd                        0x2007c065   Data           1  main.o(.data)
    work_stat                                0x2007c066   Data           1  main.o(.data)
    b10000Hz                                 0x2007c06a   Data           1  main.o(.data)
    b1000Hz                                  0x2007c06b   Data           1  main.o(.data)
    b2000Hz                                  0x2007c06c   Data           1  main.o(.data)
    b100Hz                                   0x2007c06d   Data           1  main.o(.data)
    b50Hz                                    0x2007c06e   Data           1  main.o(.data)
    b10Hz                                    0x2007c06f   Data           1  main.o(.data)
    b5Hz                                     0x2007c070   Data           1  main.o(.data)
    b2Hz                                     0x2007c071   Data           1  main.o(.data)
    b1Hz                                     0x2007c072   Data           1  main.o(.data)
    b1min                                    0x2007c073   Data           1  main.o(.data)
    bFL5                                     0x2007c074   Data           1  main.o(.data)
    bFL2                                     0x2007c075   Data           1  main.o(.data)
    bTPS                                     0x2007c076   Data           1  main.o(.data)
    APV_ON1                                  0x2007c077   Data           1  main.o(.data)
    APV_ON2                                  0x2007c078   Data           1  main.o(.data)
    AVZ                                      0x2007c079   Data           1  main.o(.data)
    MNEMO_ON                                 0x2007c07a   Data           1  main.o(.data)
    phase                                    0x2007c07b   Data           1  main.o(.data)
    simax                                    0x2007c07c   Data           1  main.o(.data)
    bFF                                      0x2007c07d   Data           1  main.o(.data)
    bFF_                                     0x2007c07e   Data           1  main.o(.data)
    net_av                                   0x2007c07f   Data           1  main.o(.data)
    but                                      0x2007c080   Data           1  main.o(.data)
    but0_cnt                                 0x2007c081   Data           1  main.o(.data)
    but1_cnt                                 0x2007c082   Data           1  main.o(.data)
    but_onL_temp                             0x2007c083   Data           1  main.o(.data)
    cnt_net_drv                              0x2007c084   Data           1  main.o(.data)
    speed                                    0x2007c085   Data           1  main.o(.data)
    l_but                                    0x2007c086   Data           1  main.o(.data)
    n_but                                    0x2007c087   Data           1  main.o(.data)
    default_temp                             0x2007c088   Data           1  main.o(.data)
    plazma_plazma_plazma                     0x2007c089   Data           1  main.o(.data)
    t_ext_can_nd                             0x2007c08a   Data           1  main.o(.data)
    bCAN_OFF                                 0x2007c08b   Data           1  main.o(.data)
    can2_plazma                              0x2007c08c   Data           1  main.o(.data)
    main_10Hz_cnt                            0x2007c08e   Data           2  main.o(.data)
    main_1Hz_cnt                             0x2007c090   Data           2  main.o(.data)
    ind_pointer                              0x2007c092   Data           2  main.o(.data)
    t0cnt                                    0x2007c094   Data           2  main.o(.data)
    t0cnt0                                   0x2007c096   Data           2  main.o(.data)
    t0cnt1                                   0x2007c098   Data           2  main.o(.data)
    t0cnt2                                   0x2007c09a   Data           2  main.o(.data)
    t0cnt3                                   0x2007c09c   Data           2  main.o(.data)
    t0cnt4                                   0x2007c09e   Data           2  main.o(.data)
    t0cnt5                                   0x2007c0a0   Data           2  main.o(.data)
    UMAX                                     0x2007c0a2   Data           2  main.o(.data)
    TSIGN                                    0x2007c0a4   Data           2  main.o(.data)
    IKB                                      0x2007c0a6   Data           2  main.o(.data)
    UVZ                                      0x2007c0a8   Data           2  main.o(.data)
    IMAX                                     0x2007c0aa   Data           2  main.o(.data)
    IMIN                                     0x2007c0ac   Data           2  main.o(.data)
    IZMAX                                    0x2007c0ae   Data           2  main.o(.data)
    TZAS                                     0x2007c0b0   Data           2  main.o(.data)
    VZ_HR                                    0x2007c0b2   Data           2  main.o(.data)
    TBAT                                     0x2007c0b4   Data           2  main.o(.data)
    U_AVT                                    0x2007c0b6   Data           2  main.o(.data)
    DU                                       0x2007c0b8   Data           2  main.o(.data)
    TBATMAX                                  0x2007c0ba   Data           2  main.o(.data)
    TBATSIGN                                 0x2007c0bc   Data           2  main.o(.data)
    TBOXMAX                                  0x2007c0be   Data           2  main.o(.data)
    TBOXREG                                  0x2007c0c0   Data           2  main.o(.data)
    TBOXVENTMAX                              0x2007c0c2   Data           2  main.o(.data)
    TLOADDISABLE                             0x2007c0c4   Data           2  main.o(.data)
    TLOADENABLE                              0x2007c0c6   Data           2  main.o(.data)
    TBATDISABLE                              0x2007c0c8   Data           2  main.o(.data)
    TBATENABLE                               0x2007c0ca   Data           2  main.o(.data)
    NUMBAT                                   0x2007c0cc   Data           2  main.o(.data)
    NUMIST                                   0x2007c0ce   Data           2  main.o(.data)
    NUMINV                                   0x2007c0d0   Data           2  main.o(.data)
    NUMDT                                    0x2007c0d2   Data           2  main.o(.data)
    NUMSK                                    0x2007c0d4   Data           2  main.o(.data)
    NUMAVT                                   0x2007c0d6   Data           2  main.o(.data)
    APV_ON2_TIME                             0x2007c0d8   Data           2  main.o(.data)
    BAT_IS_ON                                0x2007c0da   Data           2  main.o(.data)
    HOUR_AVZ                                 0x2007c0dc   Data           2  main.o(.data)
    MIN_AVZ                                  0x2007c0de   Data           2  main.o(.data)
    SEC_AVZ                                  0x2007c0e0   Data           2  main.o(.data)
    DATE_AVZ                                 0x2007c0e2   Data           2  main.o(.data)
    MONTH_AVZ                                0x2007c0e4   Data           2  main.o(.data)
    YEAR_AVZ                                 0x2007c0e6   Data           2  main.o(.data)
    AVZ_TIME                                 0x2007c0e8   Data           2  main.o(.data)
    MNEMO_TIME                               0x2007c0ea   Data           2  main.o(.data)
    POWER_CNT_ADRESS                         0x2007c0ec   Data           2  main.o(.data)
    bat_u_old_cnt                            0x2007c0ee   Data           2  main.o(.data)
    load_U                                   0x2007c0f0   Data           2  main.o(.data)
    load_I                                   0x2007c0f2   Data           2  main.o(.data)
    av_j_si_max                              0x2007c0f4   Data           2  main.o(.data)
    net_U                                    0x2007c0f6   Data           2  main.o(.data)
    net_F                                    0x2007c0f8   Data           2  main.o(.data)
    hz_out                                   0x2007c0fa   Data           2  main.o(.data)
    hz_out_cnt                               0x2007c0fc   Data           2  main.o(.data)
    t_box                                    0x2007c0fe   Data           2  main.o(.data)
    av_beep                                  0x2007c100   Data           2  main.o(.data)
    av_rele                                  0x2007c102   Data           2  main.o(.data)
    Uvv0                                     0x2007c104   Data           2  main.o(.data)
    pos_vent                                 0x2007c106   Data           2  main.o(.data)
    t_ext_can                                0x2007c108   Data           2  main.o(.data)
    power_current                            0x2007c10a   Data           2  main.o(.data)
    main_vent_pos                            0x2007c10c   Data           2  main.o(.data)
    unet_drv_cnt                             0x2007c10e   Data           2  main.o(.data)
    U_MAX                                    0x2007c110   Data           2  main.o(.data)
    U_MIN                                    0x2007c112   Data           2  main.o(.data)
    I_MAX                                    0x2007c114   Data           2  main.o(.data)
    I_MIN                                    0x2007c116   Data           2  main.o(.data)
    T_MAX                                    0x2007c118   Data           2  main.o(.data)
    T_SIGN                                   0x2007c11a   Data           2  main.o(.data)
    I_ug                                     0x2007c11c   Data           2  main.o(.data)
    U_up                                     0x2007c11e   Data           2  main.o(.data)
    U_maxg                                   0x2007c120   Data           2  main.o(.data)
    I_maxp                                   0x2007c122   Data           2  main.o(.data)
    parol                                    0x2007c124   Data           3  main.o(.data)
    sk_stat                                  0x2007c127   Data           4  main.o(.data)
    sk_av_stat                               0x2007c12b   Data           4  main.o(.data)
    tick                                     0x2007c130   Data           4  main.o(.data)
    BAT_DAY_OF_ON                            0x2007c134   Data           4  main.o(.data)
    BAT_MONTH_OF_ON                          0x2007c138   Data           4  main.o(.data)
    BAT_YEAR_OF_ON                           0x2007c13c   Data           4  main.o(.data)
    BAT_C_NOM                                0x2007c140   Data           4  main.o(.data)
    BAT_RESURS                               0x2007c144   Data           4  main.o(.data)
    bSILENT                                  0x2007c148   Data           4  main.o(.data)
    but_n                                    0x2007c14c   Data           4  main.o(.data)
    but_s                                    0x2007c150   Data           4  main.o(.data)
    power_summary                            0x2007c154   Data           4  main.o(.data)
    a_ind                                    0x2007c158   Data           5  main.o(.data)
    c_ind                                    0x2007c15d   Data           5  main.o(.data)
    t_ext                                    0x2007c162   Data           6  main.o(.data)
    adc_buff_ext_                            0x2007c168   Data           6  main.o(.data)
    Uvv                                      0x2007c16e   Data           6  main.o(.data)
    Uvv_eb2                                  0x2007c174   Data           6  main.o(.data)
    Upes_eb2                                 0x2007c17a   Data           6  main.o(.data)
    SK_SIGN                                  0x2007c180   Data           8  main.o(.data)
    SK_REL_EN                                0x2007c188   Data           8  main.o(.data)
    SK_ZVUK_EN                               0x2007c190   Data           8  main.o(.data)
    SK_LCD_EN                                0x2007c198   Data           8  main.o(.data)
    lcd_buffer                               0x2007c1a0   Data         300  main.o(.data)
    Kuload                                   0x2007c2cc   Data           2  main.o(.data)
    UB20                                     0x2007c2ce   Data           2  main.o(.data)
    USIGN                                    0x2007c2d0   Data           2  main.o(.data)
    ZV_ON                                    0x2007c2d2   Data           2  main.o(.data)
    U0B                                      0x2007c2d4   Data           2  main.o(.data)
    UBM_AV                                   0x2007c2d6   Data           2  main.o(.data)
    BAT_C_REAL                               0x2007c2d8   Data           4  main.o(.data)
    AUSW_MAIN                                0x2007c2dc   Data           2  main.o(.data)
    AUSW_MONTH                               0x2007c2de   Data           2  main.o(.data)
    AUSW_UKU                                 0x2007c2e0   Data           2  main.o(.data)
    AUSW_UKU_NUMBER                          0x2007c2e4   Data           4  main.o(.data)
    AUSW_BPS2_NUMBER                         0x2007c2e8   Data           4  main.o(.data)
    AUSW_RS232                               0x2007c2ec   Data           2  main.o(.data)
    AUSW_SDH                                 0x2007c2ee   Data           2  main.o(.data)
    TMAX_EXT_EN                              0x2007c2f0   Data           6  main.o(.data)
    TMIN_EXT_EN                              0x2007c2f6   Data           6  main.o(.data)
    T_EXT_REL_EN                             0x2007c2fc   Data           6  main.o(.data)
    T_EXT_LCD_EN                             0x2007c302   Data           6  main.o(.data)
    SK_RS_EN                                 0x2007c308   Data           8  main.o(.data)
    ETH_IS_ON                                0x2007c310   Data           2  main.o(.data)
    ETH_IP_1                                 0x2007c312   Data           2  main.o(.data)
    ETH_IP_3                                 0x2007c314   Data           2  main.o(.data)
    ETH_MASK_1                               0x2007c316   Data           2  main.o(.data)
    ETH_MASK_3                               0x2007c318   Data           2  main.o(.data)
    ETH_TRAP1_IP_1                           0x2007c31a   Data           2  main.o(.data)
    ETH_TRAP1_IP_3                           0x2007c31c   Data           2  main.o(.data)
    ETH_TRAP2_IP_1                           0x2007c31e   Data           2  main.o(.data)
    ETH_TRAP2_IP_3                           0x2007c320   Data           2  main.o(.data)
    ETH_TRAP3_IP_1                           0x2007c322   Data           2  main.o(.data)
    ETH_TRAP3_IP_3                           0x2007c324   Data           2  main.o(.data)
    ETH_TRAP4_IP_1                           0x2007c326   Data           2  main.o(.data)
    ETH_TRAP4_IP_3                           0x2007c328   Data           2  main.o(.data)
    ETH_TRAP5_IP_1                           0x2007c32a   Data           2  main.o(.data)
    ETH_TRAP5_IP_3                           0x2007c32c   Data           2  main.o(.data)
    ETH_SNMP_PORT_READ                       0x2007c32e   Data           2  main.o(.data)
    ETH_GW_1                                 0x2007c330   Data           2  main.o(.data)
    ETH_GW_3                                 0x2007c332   Data           2  main.o(.data)
    dig                                      0x2007c334   Data           5  main.o(.data)
    zero_on                                  0x2007c339   Data           1  main.o(.data)
    vvod_pos                                 0x2007c33a   Data           2  main.o(.data)
    _xu_                                     0x2007c33c   Data           2  main.o(.data)
    Kiload1                                  0x2007c33e   Data           2  main.o(.data)
    b7705ch                                  0x2007c340   Data           1  ad7705.o(.data)
    ad7705_wrk_cnt                           0x2007c341   Data           1  ad7705.o(.data)
    ad7705_res1                              0x2007c342   Data           2  ad7705.o(.data)
    ad7705_res2                              0x2007c344   Data           2  ad7705.o(.data)
    ad7705_res                               0x2007c346   Data           2  ad7705.o(.data)
    ad7705_plazma                            0x2007c348   Data           2  ad7705.o(.data)
    ad7705_buff_                             0x2007c34a   Data           4  ad7705.o(.data)
    udp_socket                               0x2007c36c   Data          60  net_config_http.o(.bss)
    http_session                             0x2007c3a8   Data         288  net_config_http.o(.bss)
    adc_buff                                 0x2007c4c8   Data        2048  control.o(.bss)
    adc_buff_                                0x2007ccc8   Data          32  control.o(.bss)
    main_power_buffer                        0x2007cce8   Data          32  control.o(.bss)
    bat                                      0x2007cd08   Data         152  main.o(.bss)
    bps                                      0x2007cda0   Data         960  main.o(.bss)
    inv                                      0x2007d160   Data         240  main.o(.bss)
    lcd_bitmap                               0x2007d250   Data        1024  main.o(.bss)
    tst_state                                0x2007d650   Data          15  main.o(.bss)
    content                                  0x2007d65f   Data          63  main.o(.bss)
    ibt                                      0x2007d69e   Data          30  main.o(.bss)
    avt_stat                                 0x2007d6bc   Data          12  main.o(.bss)
    b_ind                                    0x2007d6c8   Data          50  main.o(.bss)
    eb2_data_short                           0x2007d6fa   Data          20  main.o(.bss)
    can1_info                                0x2007d710   Data          32  full_can.o(.bss)
    can1_id                                  0x2007d730   Data          32  full_can.o(.bss)
    can1_data                                0x2007d750   Data          32  full_can.o(.bss)
    can1_datb                                0x2007d770   Data          32  full_can.o(.bss)
    can2_info                                0x2007d790   Data          32  full_can.o(.bss)
    can2_id                                  0x2007d7b0   Data          32  full_can.o(.bss)
    can2_data                                0x2007d7d0   Data          32  full_can.o(.bss)
    can2_datb                                0x2007d7f0   Data          32  full_can.o(.bss)
    rotor_can                                0x2007d810   Data          12  full_can.o(.bss)
    gFullCANList                             0x2007d81c   Data          24  full_can.o(.bss)
    RXBUFF                                   0x2007d834   Data          40  full_can.o(.bss)
    TXBUFF                                   0x2007d85c   Data          40  full_can.o(.bss)
    can_rotor                                0x2007d884   Data          10  full_can.o(.bss)
    can_debug_plazma                         0x2007d88e   Data          20  full_can.o(.bss)
    UIB0                                     0x2007d8a2   Data         100  uart0.o(.bss)
    rx_buffer0                               0x2007d906   Data        1024  uart0.o(.bss)
    tx_buffer0                               0x2007dd06   Data        1024  uart0.o(.bss)



==============================================================================

Memory Map of the image

  Image Entry point : 0x000000cd

  Load Region LR_IROM1 (Base: 0x00000000, Size: 0x0000d9c8, Max: 0x00040000, ABSOLUTE, COMPRESSED[0x0000d684])

    Execution Region ER_IROM1 (Base: 0x00000000, Size: 0x0000d568, Max: 0x00040000, ABSOLUTE)

    Base Addr    Size         Type   Attr      Idx    E Section Name        Object

    0x00000000   0x000000cc   Data   RO            3    RESET               startup_lpc17xx.o
    0x000000cc   0x00000000   Code   RO         1525  * .ARM.Collect$$$$00000000  mc_w.l(entry.o)
    0x000000cc   0x00000004   Code   RO         1795    .ARM.Collect$$$$00000001  mc_w.l(entry2.o)
    0x000000d0   0x00000004   Code   RO         1798    .ARM.Collect$$$$00000004  mc_w.l(entry5.o)
    0x000000d4   0x00000008   Code   RO         1799    .ARM.Collect$$$$00000007  mc_w.l(entry7.o)
    0x000000dc   0x00000004   Code   RO         1796    .ARM.Collect$$$$00002712  mc_w.l(entry2.o)
    0x000000e0   0x0000001c   Code   RO            5    .text               startup_lpc17xx.o
    0x000000fc   0x0000002a   Code   RO           13    .text               net_config_http.o
    0x00000126   0x00000002   PAD
    0x00000128   0x000000e8   Code   RO          336    .text               mess.o
    0x00000210   0x00000038   Code   RO          352    .text               ret.o
    0x00000248   0x00000058   Code   RO          382    .text               gran.o
    0x000002a0   0x0000004c   Code   RO          857    .text               timer.o
    0x000002ec   0x00000010   Code   RO         1528    .text               mc_w.l(strlen.o)
    0x000002fc   0x00000004   Code   RO            4    .ARM.__at_0x02FC    startup_lpc17xx.o
    0x00000300   0x00000610   Code   RO           75    .text               common_func.o
    0x00000910   0x000006a8   Code   RO          183    .text               control.o
    0x00000fb8   0x00000506   Code   RO          401    .text               avar_hndl.o
    0x000014be   0x00000002   PAD
    0x000014c0   0x000062b0   Code   RO          496    .text               main.o
    0x00007770   0x0000093c   Code   RO          817    .text               memo.o
    0x000080ac   0x00000154   Code   RO          830    .text               system_lpc17xx.o
    0x00008200   0x00000158   Code   RO          930    .text               beep.o
    0x00008358   0x0000020c   Code   RO          949    .text               ad7705.o
    0x00008564   0x0000049c   Code   RO          977    .text               lcd_agm1232_uku207_3.o
    0x00008a00   0x00000448   Code   RO         1024    .text               25lc640.o
    0x00008e48   0x00000b80   Code   RO         1057    .text               full_can.o
    0x000099c8   0x00000530   Code   RO         1133    .text               uart0.o
    0x00009ef8   0x000000e4   Code   RO         1193    .text               emac_lpc17xx.o
    0x00009fdc   0x0000002c   Code   RO         1803    .text               mc_w.l(uidiv.o)
    0x0000a008   0x00000024   Code   RO         1827    .text               mc_w.l(init.o)
    0x0000a02c   0x0000003a   Code   RO         1878    .text               mc_w.l(__dczerorl.o)
    0x0000a066   0x00000016   Code   RO         1458    i.CalcChksum        TCP_CM3.lib(at_lib.o)
    0x0000a07c   0x00000028   Code   RO         1459    i.CalcChksumBuf     TCP_CM3.lib(at_lib.o)
    0x0000a0a4   0x0000000a   Code   RO         1460    i.CalcChksumVal     TCP_CM3.lib(at_lib.o)
    0x0000a0ae   0x0000000a   Code   RO         1461    i.SwapB             TCP_CM3.lib(at_lib.o)
    0x0000a0b8   0x00000028   Code   RO         1689    i.__0sprintf$6      mc_w.l(printf6.o)
    0x0000a0e0   0x0000000e   Code   RO         1872    i.__scatterload_copy  mc_w.l(handlers.o)
    0x0000a0ee   0x00000002   Code   RO         1873    i.__scatterload_null  mc_w.l(handlers.o)
    0x0000a0f0   0x0000000e   Code   RO         1874    i.__scatterload_zeroinit  mc_w.l(handlers.o)
    0x0000a0fe   0x00000002   PAD
    0x0000a100   0x00000338   Code   RO         1694    i._printf_core      mc_w.l(printf6.o)
    0x0000a438   0x00000026   Code   RO         1695    i._printf_post_padding  mc_w.l(printf6.o)
    0x0000a45e   0x0000002e   Code   RO         1696    i._printf_pre_padding  mc_w.l(printf6.o)
    0x0000a48c   0x0000000a   Code   RO         1698    i._sputc            mc_w.l(printf6.o)
    0x0000a496   0x00000002   PAD
    0x0000a498   0x000000a4   Code   RO         1397    i.alloc_mem         TCP_CM3.lib(at_mem.o)
    0x0000a53c   0x000000c4   Code   RO         1416    i.arp_cache_add     TCP_CM3.lib(at_arp.o)
    0x0000a600   0x0000006c   Code   RO         1417    i.arp_cache_alloc   TCP_CM3.lib(at_arp.o)
    0x0000a66c   0x00000118   Code   RO         1418    i.arp_cache_find    TCP_CM3.lib(at_arp.o)
    0x0000a784   0x000000f8   Code   RO         1420    i.arp_cache_update  TCP_CM3.lib(at_arp.o)
    0x0000a87c   0x00000068   Code   RO         1422    i.arp_get_response  TCP_CM3.lib(at_arp.o)
    0x0000a8e4   0x0000009c   Code   RO         1423    i.arp_send_reply    TCP_CM3.lib(at_arp.o)
    0x0000a980   0x000000ac   Code   RO         1424    i.arp_send_req      TCP_CM3.lib(at_arp.o)
    0x0000aa2c   0x00000004   Code   RO         1506    i.cgi_func          TCP_CM3.lib(at_http_cgi.o)
    0x0000aa30   0x00000002   Code   RO         1507    i.cgi_process_data  TCP_CM3.lib(at_http_cgi.o)
    0x0000aa32   0x00000004   Code   RO         1316    i.cgx_content_type  TCP_CM3.lib(at_http.o)
    0x0000aa36   0x00000002   PAD
    0x0000aa38   0x00000010   Code   RO         1378    i.eth_chk_adr       TCP_CM3.lib(at_ethernet.o)
    0x0000aa48   0x00000098   Code   RO         1380    i.eth_send_frame    TCP_CM3.lib(at_ethernet.o)
    0x0000aae0   0x00000068   Code   RO         1398    i.free_mem          TCP_CM3.lib(at_mem.o)
    0x0000ab48   0x00000028   Code   RO         1466    i.get_crc           TCP_CM3.lib(at_lib.o)
    0x0000ab70   0x00000016   Code   RO         1468    i.get_u32           TCP_CM3.lib(at_lib.o)
    0x0000ab86   0x00000002   PAD
    0x0000ab88   0x0000020c   Code   RO         1323    i.http_add_header   TCP_CM3.lib(at_http.o)
    0x0000ad94   0x000001bc   Code   RO         1325    i.http_error_msg    TCP_CM3.lib(at_http.o)
    0x0000af50   0x00000002   Code   RO         1512    i.http_fclose       TCP_CM3.lib(at_http_uif.o)
    0x0000af52   0x00000004   Code   RO         1513    i.http_fgets        TCP_CM3.lib(at_http_uif.o)
    0x0000af56   0x00000004   Code   RO         1514    i.http_finfo        TCP_CM3.lib(at_http_uif.o)
    0x0000af5a   0x00000004   Code   RO         1515    i.http_fopen        TCP_CM3.lib(at_http_uif.o)
    0x0000af5e   0x00000004   Code   RO         1516    i.http_fread        TCP_CM3.lib(at_http_uif.o)
    0x0000af62   0x0000005e   Code   RO         1332    i.http_kill_session  TCP_CM3.lib(at_http.o)
    0x0000afc0   0x00000138   Code   RO         1334    i.http_open_file    TCP_CM3.lib(at_http.o)
    0x0000b0f8   0x0000001e   Code   RO         1339    i.http_strcpy       TCP_CM3.lib(at_http.o)
    0x0000b116   0x00000002   PAD
    0x0000b118   0x000000c4   Code   RO         1441    i.ip_chk_frame      TCP_CM3.lib(at_ip.o)
    0x0000b1dc   0x0000000a   Code   RO         1442    i.ip_get_chksum     TCP_CM3.lib(at_ip.o)
    0x0000b1e6   0x00000002   PAD
    0x0000b1e8   0x00000098   Code   RO         1443    i.ip_get_locadr     TCP_CM3.lib(at_ip.o)
    0x0000b280   0x00000090   Code   RO         1444    i.ip_send_frame     TCP_CM3.lib(at_ip.o)
    0x0000b310   0x00000022   Code   RO         1469    i.is_subnet         TCP_CM3.lib(at_lib.o)
    0x0000b332   0x00000002   PAD
    0x0000b334   0x0000002c   Code   RO         1426    i.is_subnet_bcast   TCP_CM3.lib(at_arp.o)
    0x0000b360   0x0000003c   Code   RO         1408    i.main_TcpNet       TCP_CM3.lib(at_system.o)
    0x0000b39c   0x0000001e   Code   RO         1470    i.mem_comp          TCP_CM3.lib(at_lib.o)
    0x0000b3ba   0x00000002   PAD
    0x0000b3bc   0x0000001c   Code   RO         1471    i.mem_copy          TCP_CM3.lib(at_lib.o)
    0x0000b3d8   0x00000010   Code   RO         1473    i.mem_set           TCP_CM3.lib(at_lib.o)
    0x0000b3e8   0x00000016   Code   RO         1474    i.mem_test          TCP_CM3.lib(at_lib.o)
    0x0000b3fe   0x00000002   Code   RO         1382    i.poll_ethernet     TCP_CM3.lib(at_ethernet.o)
    0x0000b400   0x00000098   Code   RO         1427    i.process_arp       TCP_CM3.lib(at_arp.o)
    0x0000b498   0x00000002   Code   RO         1383    i.process_hl_igmp   TCP_CM3.lib(at_ethernet.o)
    0x0000b49a   0x00000074   Code   RO         1451    i.process_icmp      TCP_CM3.lib(at_icmp.o)
    0x0000b50e   0x00000002   PAD
    0x0000b510   0x0000046c   Code   RO         1243    i.process_tcp       TCP_CM3.lib(at_tcp.o)
    0x0000b97c   0x000000c4   Code   RO         1298    i.process_udp       TCP_CM3.lib(at_udp.o)
    0x0000ba40   0x0000002c   Code   RO         1384    i.put_in_queue      TCP_CM3.lib(at_ethernet.o)
    0x0000ba6c   0x0000009e   Code   RO         1342    i.read_script_line  TCP_CM3.lib(at_http.o)
    0x0000bb0a   0x00000002   PAD
    0x0000bb0c   0x00000034   Code   RO         1400    i.resize_mem        TCP_CM3.lib(at_mem.o)
    0x0000bb40   0x000000b0   Code   RO         1385    i.run_eth_link      TCP_CM3.lib(at_ethernet.o)
    0x0000bbf0   0x000002f8   Code   RO         1343    i.run_http_server   TCP_CM3.lib(at_http.o)
    0x0000bee8   0x00000010   Code   RO         1475    i.set_u32           TCP_CM3.lib(at_lib.o)
    0x0000bef8   0x00000016   Code   RO         1476    i.str_copy          TCP_CM3.lib(at_lib.o)
    0x0000bf0e   0x0000001a   Code   RO         1477    i.str_crc           TCP_CM3.lib(at_lib.o)
    0x0000bf28   0x00000058   Code   RO         1244    i.tcp_abort         TCP_CM3.lib(at_tcp.o)
    0x0000bf80   0x00000084   Code   RO         1246    i.tcp_close         TCP_CM3.lib(at_tcp.o)
    0x0000c004   0x00000010   Code   RO         1249    i.tcp_get_buf       TCP_CM3.lib(at_tcp.o)
    0x0000c014   0x0000002c   Code   RO         1252    i.tcp_get_state     TCP_CM3.lib(at_tcp.o)
    0x0000c040   0x00000014   Code   RO         1253    i.tcp_init_seq      TCP_CM3.lib(at_tcp.o)
    0x0000c054   0x0000007c   Code   RO         1254    i.tcp_listen        TCP_CM3.lib(at_tcp.o)
    0x0000c0d0   0x000000a0   Code   RO         1255    i.tcp_map_socket    TCP_CM3.lib(at_tcp.o)
    0x0000c170   0x00000024   Code   RO         1256    i.tcp_max_dsize     TCP_CM3.lib(at_tcp.o)
    0x0000c194   0x000001f4   Code   RO         1257    i.tcp_poll_sockets  TCP_CM3.lib(at_tcp.o)
    0x0000c388   0x00000070   Code   RO         1258    i.tcp_process_opt   TCP_CM3.lib(at_tcp.o)
    0x0000c3f8   0x00000104   Code   RO         1262    i.tcp_send          TCP_CM3.lib(at_tcp.o)
    0x0000c4fc   0x00000022   Code   RO         1263    i.tcp_send_ctrl     TCP_CM3.lib(at_tcp.o)
    0x0000c51e   0x00000002   PAD
    0x0000c520   0x000000f4   Code   RO         1264    i.tcp_send_frame    TCP_CM3.lib(at_tcp.o)
    0x0000c614   0x00000080   Code   RO         1265    i.tcp_send_reset    TCP_CM3.lib(at_tcp.o)
    0x0000c694   0x00000012   Code   RO         1267    i.tcp_set_retransmit  TCP_CM3.lib(at_tcp.o)
    0x0000c6a6   0x00000002   PAD
    0x0000c6a8   0x00000074   Code   RO         1268    i.tcp_transit       TCP_CM3.lib(at_tcp.o)
    0x0000c71c   0x0000000c   Code   RO         1409    i.timer_tick        TCP_CM3.lib(at_system.o)
    0x0000c728   0x000000e0   Code   RO         1345    i.utc_to_http       TCP_CM3.lib(at_http.o)
    0x0000c808   0x00000001   Data   RO           22    .constdata          net_config_http.o
    0x0000c809   0x00000003   PAD
    0x0000c80c   0x00000004   Data   RO           23    .constdata          net_config_http.o
    0x0000c810   0x00000002   Data   RO           24    .constdata          net_config_http.o
    0x0000c812   0x00000002   Data   RO           25    .constdata          net_config_http.o
    0x0000c814   0x00000002   Data   RO           26    .constdata          net_config_http.o
    0x0000c816   0x00000001   Data   RO           27    .constdata          net_config_http.o
    0x0000c817   0x00000001   Data   RO           28    .constdata          net_config_http.o
    0x0000c818   0x00000001   Data   RO           29    .constdata          net_config_http.o
    0x0000c819   0x00000001   Data   RO           30    .constdata          net_config_http.o
    0x0000c81a   0x00000001   Data   RO           31    .constdata          net_config_http.o
    0x0000c81b   0x00000001   PAD
    0x0000c81c   0x00000002   Data   RO           32    .constdata          net_config_http.o
    0x0000c81e   0x00000002   Data   RO           33    .constdata          net_config_http.o
    0x0000c820   0x00000002   Data   RO           34    .constdata          net_config_http.o
    0x0000c822   0x00000002   Data   RO           35    .constdata          net_config_http.o
    0x0000c824   0x00000001   Data   RO           37    .constdata          net_config_http.o
    0x0000c825   0x00000001   Data   RO           38    .constdata          net_config_http.o
    0x0000c826   0x00000002   Data   RO           40    .constdata          net_config_http.o
    0x0000c828   0x00000014   Data   RO           41    .constdata          net_config_http.o
    0x0000c83c   0x00000004   Data   RO          458    .constdata          eeprom_map.o
    0x0000c840   0x00000004   Data   RO          459    .constdata          eeprom_map.o
    0x0000c844   0x00000004   Data   RO          460    .constdata          eeprom_map.o
    0x0000c848   0x00000004   Data   RO          461    .constdata          eeprom_map.o
    0x0000c84c   0x00000004   Data   RO          462    .constdata          eeprom_map.o
    0x0000c850   0x00000004   Data   RO          463    .constdata          eeprom_map.o
    0x0000c854   0x00000004   Data   RO          464    .constdata          eeprom_map.o
    0x0000c858   0x00000004   Data   RO          465    .constdata          eeprom_map.o
    0x0000c85c   0x00000004   Data   RO          466    .constdata          eeprom_map.o
    0x0000c860   0x00000673   Data   RO          508    .constdata          main.o
    0x0000ced3   0x00000011   Data   RO          509    .constdata          main.o
    0x0000cee4   0x00000200   Data   RO         1067    .constdata          full_can.o
    0x0000d0e4   0x000000ca   Data   RO         1346    .constdata          TCP_CM3.lib(at_http.o)
    0x0000d1ae   0x00000006   Data   RO         1387    .constdata          TCP_CM3.lib(at_ethernet.o)
    0x0000d1b4   0x00000004   Data   RO         1445    .constdata          TCP_CM3.lib(at_ip.o)
    0x0000d1b8   0x0000005e   Data   RO         1453    .constdata          TCP_CM3.lib(http_err.o)
    0x0000d216   0x0000005b   Data   RO         1454    .constdata          TCP_CM3.lib(http_err.o)
    0x0000d271   0x00000053   Data   RO         1455    .constdata          TCP_CM3.lib(http_err.o)
    0x0000d2c4   0x0000003b   Data   RO         1456    .constdata          TCP_CM3.lib(http_err.o)
    0x0000d2ff   0x00000089   Data   RO         1457    .constdata          TCP_CM3.lib(http_err.o)
    0x0000d388   0x00000004   Data   RO         1522    .constdata          TCP_CM3.lib(at_web.o)
    0x0000d38c   0x0000018b   Data   RO         1523    .constdata          TCP_CM3.lib(at_web.o)
    0x0000d517   0x00000001   PAD
    0x0000d518   0x00000010   Data   RO         1524    .constdata          TCP_CM3.lib(at_web.o)
    0x0000d528   0x00000040   Data   RO         1870    Region$$Table       anon$$obj.o


    Execution Region RW_IRAM1 (Base: 0x10000000, Size: 0x00004bf0, Max: 0x00008000, ABSOLUTE)

    Base Addr    Size         Type   Attr      Idx    E Section Name        Object

    0x10000000   0x00000004   Data   RW          227    .data               control.o
    0x10000004   0x00000004   Data   RW          231    .data               control.o
    0x10000008   0x00000001   Data   RW          232    .data               control.o
    0x10000009   0x00000001   Data   RW          249    .data               control.o
    0x1000000a   0x00000002   Data   RW          251    .data               control.o
    0x1000000c   0x00000002   Data   RW          252    .data               control.o
    0x1000000e   0x00000002   Data   RW          254    .data               control.o
    0x10000010   0x00000002   Data   RW          260    .data               control.o
    0x10000012   0x00000002   Data   RW          262    .data               control.o
    0x10000014   0x00000008   Data   RW          338    .data               mess.o
    0x1000001c   0x00000014   Data   RW          355    .data               ret.o
    0x10000030   0x00000001   Data   RW          518    .data               main.o
    0x10000031   0x00000001   PAD
    0x10000032   0x00000006   Data   RW          535    .data               main.o
    0x10000038   0x00000002   Data   RW          541    .data               main.o
    0x1000003a   0x00000002   Data   RW          543    .data               main.o
    0x1000003c   0x00000002   Data   RW          545    .data               main.o
    0x1000003e   0x00000002   Data   RW          547    .data               main.o
    0x10000040   0x00000002   Data   RW          549    .data               main.o
    0x10000042   0x00000002   Data   RW          551    .data               main.o
    0x10000044   0x00000004   Data   RW          554    .data               main.o
    0x10000048   0x00000002   Data   RW          555    .data               main.o
    0x1000004a   0x00000002   Data   RW          557    .data               main.o
    0x1000004c   0x00000002   Data   RW          559    .data               main.o
    0x1000004e   0x00000002   PAD
    0x10000050   0x00000004   Data   RW          561    .data               main.o
    0x10000054   0x00000002   Data   RW          564    .data               main.o
    0x10000056   0x00000002   Data   RW          566    .data               main.o
    0x10000058   0x00000006   Data   RW          568    .data               main.o
    0x1000005e   0x00000006   Data   RW          570    .data               main.o
    0x10000064   0x00000006   Data   RW          572    .data               main.o
    0x1000006a   0x00000006   Data   RW          574    .data               main.o
    0x10000070   0x00000002   Data   RW          577    .data               main.o
    0x10000072   0x00000002   Data   RW          579    .data               main.o
    0x10000074   0x00000002   Data   RW          581    .data               main.o
    0x10000076   0x00000002   Data   RW          583    .data               main.o
    0x10000078   0x00000002   Data   RW          585    .data               main.o
    0x1000007a   0x00000002   Data   RW          587    .data               main.o
    0x1000007c   0x00000002   Data   RW          589    .data               main.o
    0x1000007e   0x00000002   Data   RW          591    .data               main.o
    0x10000080   0x00000002   Data   RW          593    .data               main.o
    0x10000082   0x00000002   Data   RW          595    .data               main.o
    0x10000084   0x00000002   Data   RW          597    .data               main.o
    0x10000086   0x00000002   Data   RW          599    .data               main.o
    0x10000088   0x00000002   Data   RW          601    .data               main.o
    0x1000008a   0x00000002   Data   RW          603    .data               main.o
    0x1000008c   0x00000002   Data   RW          605    .data               main.o
    0x1000008e   0x00000002   Data   RW          607    .data               main.o
    0x10000090   0x00000002   Data   RW          609    .data               main.o
    0x10000092   0x00000002   Data   RW          611    .data               main.o
    0x10000094   0x00000001   Data   RW          652    .data               main.o
    0x10000095   0x00000001   PAD
    0x10000096   0x00000002   Data   RW          661    .data               main.o
    0x10000098   0x00000002   Data   RW          663    .data               main.o
    0x1000009a   0x00000002   PAD
    0x1000009c   0x00000004   Data   RW          831    .data               system_lpc17xx.o
    0x100000a0   0x00000008   Data   RW          863    .data               timer.o
    0x100000a8   0x0000000c   Data   RW          931    .data               beep.o
    0x100000b4   0x0000001c   Data   RW         1068    .data               full_can.o
    0x100000d0   0x00000014   Data   RW         1141    .data               uart0.o
    0x100000e4   0x00000004   Data   RW         1401    .data               TCP_CM3.lib(at_mem.o)
    0x100000e8   0x00000008   Data   RW         1411    .data               TCP_CM3.lib(at_system.o)
    0x100000f0   0x00000002   Data   RW         1428    .data               TCP_CM3.lib(at_arp.o)
    0x100000f2   0x00000002   PAD
    0x100000f4   0x00004000   Zero   RW           16    .bss                net_config_http.o
    0x100040f4   0x0000008c   Zero   RW           17    .bss                net_config_http.o
    0x10004180   0x00000160   Zero   RW           19    .bss                net_config_http.o
    0x100042e0   0x00000070   Zero   RW          337    .bss                mess.o
    0x10004350   0x0000001e   Zero   RW          505    .bss                main.o
    0x1000436e   0x00000040   Zero   RW          951    .bss                ad7705.o
    0x100043ae   0x00000002   PAD
    0x100043b0   0x0000003c   Zero   RW         1410    .bss                TCP_CM3.lib(at_system.o)
    0x100043ec   0x00000004   PAD
    0x100043f0   0x00000800   Zero   RW            1    STACK               startup_lpc17xx.o


    Execution Region RW_IRAM2 (Base: 0x2007c000, Size: 0x00004bec, Max: 0x00008000, ABSOLUTE, COMPRESSED[0x00000028])

    Base Addr    Size         Type   Attr      Idx    E Section Name        Object

    0x2007c000   0x00000006   Data   RW           44    .data               net_config_http.o
    0x2007c006   0x00000030   Data   RW          202    .data               control.o
    0x2007c036   0x00000001   Data   RW          213    .data               control.o
    0x2007c037   0x00000001   PAD
    0x2007c038   0x00000004   Data   RW          228    .data               control.o
    0x2007c03c   0x00000001   Data   RW          248    .data               control.o
    0x2007c03d   0x00000001   Data   RW          250    .data               control.o
    0x2007c03e   0x00000002   Data   RW          253    .data               control.o
    0x2007c040   0x00000002   Data   RW          259    .data               control.o
    0x2007c042   0x00000002   Data   RW          261    .data               control.o
    0x2007c044   0x0000001a   Data   RW          407    .data               avar_hndl.o
    0x2007c05e   0x00000002   PAD
    0x2007c060   0x0000026c   Data   RW          510    .data               main.o
    0x2007c2cc   0x00000002   Data   RW          536    .data               main.o
    0x2007c2ce   0x00000002   Data   RW          542    .data               main.o
    0x2007c2d0   0x00000002   Data   RW          544    .data               main.o
    0x2007c2d2   0x00000002   Data   RW          546    .data               main.o
    0x2007c2d4   0x00000002   Data   RW          548    .data               main.o
    0x2007c2d6   0x00000002   Data   RW          550    .data               main.o
    0x2007c2d8   0x00000004   Data   RW          552    .data               main.o
    0x2007c2dc   0x00000002   Data   RW          553    .data               main.o
    0x2007c2de   0x00000002   Data   RW          556    .data               main.o
    0x2007c2e0   0x00000002   Data   RW          558    .data               main.o
    0x2007c2e2   0x00000002   PAD
    0x2007c2e4   0x00000004   Data   RW          560    .data               main.o
    0x2007c2e8   0x00000004   Data   RW          562    .data               main.o
    0x2007c2ec   0x00000002   Data   RW          563    .data               main.o
    0x2007c2ee   0x00000002   Data   RW          565    .data               main.o
    0x2007c2f0   0x00000006   Data   RW          567    .data               main.o
    0x2007c2f6   0x00000006   Data   RW          569    .data               main.o
    0x2007c2fc   0x00000006   Data   RW          571    .data               main.o
    0x2007c302   0x00000006   Data   RW          573    .data               main.o
    0x2007c308   0x00000008   Data   RW          575    .data               main.o
    0x2007c310   0x00000002   Data   RW          576    .data               main.o
    0x2007c312   0x00000002   Data   RW          578    .data               main.o
    0x2007c314   0x00000002   Data   RW          580    .data               main.o
    0x2007c316   0x00000002   Data   RW          582    .data               main.o
    0x2007c318   0x00000002   Data   RW          584    .data               main.o
    0x2007c31a   0x00000002   Data   RW          586    .data               main.o
    0x2007c31c   0x00000002   Data   RW          588    .data               main.o
    0x2007c31e   0x00000002   Data   RW          590    .data               main.o
    0x2007c320   0x00000002   Data   RW          592    .data               main.o
    0x2007c322   0x00000002   Data   RW          594    .data               main.o
    0x2007c324   0x00000002   Data   RW          596    .data               main.o
    0x2007c326   0x00000002   Data   RW          598    .data               main.o
    0x2007c328   0x00000002   Data   RW          600    .data               main.o
    0x2007c32a   0x00000002   Data   RW          602    .data               main.o
    0x2007c32c   0x00000002   Data   RW          604    .data               main.o
    0x2007c32e   0x00000002   Data   RW          606    .data               main.o
    0x2007c330   0x00000002   Data   RW          608    .data               main.o
    0x2007c332   0x00000002   Data   RW          610    .data               main.o
    0x2007c334   0x00000005   Data   RW          613    .data               main.o
    0x2007c339   0x00000001   Data   RW          614    .data               main.o
    0x2007c33a   0x00000002   Data   RW          653    .data               main.o
    0x2007c33c   0x00000002   Data   RW          662    .data               main.o
    0x2007c33e   0x00000002   Data   RW          664    .data               main.o
    0x2007c340   0x0000000e   Data   RW          952    .data               ad7705.o
    0x2007c34e   0x00000004   Data   RW         1269    .data               TCP_CM3.lib(at_tcp.o)
    0x2007c352   0x00000002   PAD
    0x2007c354   0x0000000c   Data   RW         1347    .data               TCP_CM3.lib(at_http.o)
    0x2007c360   0x00000008   Data   RW         1388    .data               TCP_CM3.lib(at_ethernet.o)
    0x2007c368   0x00000004   Data   RW         1446    .data               TCP_CM3.lib(at_ip.o)
    0x2007c36c   0x0000003c   Zero   RW           18    .bss                net_config_http.o
    0x2007c3a8   0x00000120   Zero   RW           20    .bss                net_config_http.o
    0x2007c4c8   0x00000840   Zero   RW          188    .bss                control.o
    0x2007cd08   0x000009c0   Zero   RW          500    .bss                main.o
    0x2007d6c8   0x00000032   Zero   RW          502    .bss                main.o
    0x2007d6fa   0x00000014   Zero   RW          506    .bss                main.o
    0x2007d70e   0x00000002   PAD
    0x2007d710   0x00000192   Zero   RW         1061    .bss                full_can.o
    0x2007d8a2   0x00000864   Zero   RW         1137    .bss                uart0.o
    0x2007e106   0x00000002   PAD
    0x2007e108   0x00002a64   Zero   RW         1195    .bss                emac_lpc17xx.o
    0x20080b6c   0x00000080   Zero   RW         1386    .bss                TCP_CM3.lib(at_ethernet.o)


==============================================================================

Image component sizes


      Code (inc. data)   RO Data    RW Data    ZI Data      Debug   Object Name

      1096         12          0          0          0       3278   25lc640.o
       524         24          0         14         64       2555   ad7705.o
      1286         32          0         26          0       2944   avar_hndl.o
       344         36          0         12          0       1319   beep.o
      1552         38          0          0          0      31808   common_func.o
      1704        144          0         81       2112      42360   control.o
         0          0         36          0          0       1758   eeprom_map.o
       228         18          0          0      10852      24336   emac_lpc17xx.o
      2944        128        512         28        402      24939   full_can.o
        88          0          0          0          0       1042   gran.o
      1180          8          0          0          0       3263   lcd_agm1232_uku207_3.o
     25264       5916       1668        836       2596      45489   main.o
      2364        544          0          0          0       1108   memo.o
       232         10          0          8        112       1923   mess.o
        42          0         48          6      17224      12789   net_config_http.o
        56          4          0         20          0       1397   ret.o
         0          0          0          0          0      17008   simbols.o
        32          8        204          0       2048        896   startup_lpc17xx.o
       340         26          0          4          0        727   system_lpc17xx.o
        76         16          0          8          0       1002   timer.o
      1328         50          0         20       2148      21409   uart0.o

    ----------------------------------------------------------------------
     40684       7014       2536       1074      37564     243350   Object Totals
         0          0         64          0          0          0   (incl. Generated)
         4          0          4         11          6          2   (incl. Padding)

    ----------------------------------------------------------------------

      Code (inc. data)   RO Data    RW Data    ZI Data      Debug   Library Member Name

      1460        146          0          2          0        812   at_arp.o
       392         42          6          8        128        464   at_ethernet.o
      2550        728        202         12          0        748   at_http.o
         6          0          0          0          0        136   at_http_cgi.o
        18          0          0          0          0        340   at_http_uif.o
       116          0          0          0          0         88   at_icmp.o
       502         26          4          4          0        332   at_ip.o
       338          4          0          0          0       1004   at_lib.o
       320         26          0          4          0        280   at_mem.o
        72         12          0          8         60        136   at_system.o
      3164        208          0          4          0       1460   at_tcp.o
       196         10          0          0          0         88   at_udp.o
         0          0        415          0          0          0   at_web.o
         0          0        464          0          0          0   http_err.o
        58          0          0          0          0          0   __dczerorl.o
         0          0          0          0          0          0   entry.o
         8          4          0          0          0          0   entry2.o
         4          0          0          0          0          0   entry5.o
         8          4          0          0          0          0   entry7.o
        30          0          0          0          0          0   handlers.o
        36          8          0          0          0         68   init.o
       958         12          0          0          0        420   printf6.o
        16          0          0          0          0         68   strlen.o
        44          0          0          0          0         80   uidiv.o

    ----------------------------------------------------------------------
     10320       1230       1092         46        192       6524   Library Totals
        24          0          1          4          4          0   (incl. Padding)

    ----------------------------------------------------------------------

      Code (inc. data)   RO Data    RW Data    ZI Data      Debug   Library Name

      9134       1202       1091         42        188       5888   TCP_CM3.lib
      1162         28          0          0          0        636   mc_w.l

    ----------------------------------------------------------------------
     10320       1230       1092         46        192       6524   Library Totals

    ----------------------------------------------------------------------

==============================================================================


      Code (inc. data)   RO Data    RW Data    ZI Data      Debug   

     51004       8244       3628       1120      37756     243740   Grand Totals
     51004       8244       3628        284      37756     243740   ELF Image Totals (compressed)
     51004       8244       3628        284          0          0   ROM Totals

==============================================================================

    Total RO  Size (Code + RO Data)                54632 (  53.35kB)
    Total RW  Size (RW Data + ZI Data)             38876 (  37.96kB)
    Total ROM Size (Code + RO Data + RW Data)      54916 (  53.63kB)

==============================================================================

